ASxxxx Linker V03.00/V05.40 + sdld,  page 1.
Hexadecimal  [32-Bits]

Area                                    Addr        Size        Decimal Bytes (Attributes)
--------------------------------        ----        ----        ------- ----- ------------
.  .ABS.                            00000000    00000000 =           0. bytes (ABS,CON)

      Value  Global                              Global Defined In Module
      -----  --------------------------------   ------------------------
     00000000  .__.ABS.                           
     00000000  _rRAMG                             
     00000000  l__BASE                         
     00000000  l__BSS                          
     00000000  l__CABS                         
     00000000  l__CODE_0                       
     00000000  l__CRASH_HEADER                 
     00000000  l__CRASH_SCRATCH                
     00000000  l__DABS                         
     00000000  l__HEADER                       
     00000000  l__HEADER_LCD                   
     00000000  l__HEADER_SIO                   
     00000000  l__HEADER_TIMER                 
     00000000  l__HEAP                         
     00000000  l__HEAP_END                     
     00000000  l__HRAM                         
     00000000  l__LIT                          
     00000000  s__CABS                         
     00000000  s__CRASH_HEADER                 
     00000000  s__CRASH_HEADER0                
     00000000  s__CRASH_HEADER1                
     00000000  s__CRASH_SCRATCH                
     00000000  s__CRASH_SCRATCH2               
     00000000  s__DABS                         
     00000000  s__HEADER                       
     00000000  s__HEADER0                      
     00000000  s__HEADER1                      
     00000000  s__HEADER10                     
     00000000  s__HEADER11                     
     00000000  s__HEADER2                      
     00000000  s__HEADER3                      
     00000000  s__HEADER4                      
     00000000  s__HEADER5                      
     00000000  s__HEADER6                      
     00000000  s__HEADER7                      
     00000000  s__HEADER8                      
     00000000  s__HEADER9                      
     00000000  s__HEADER_LCD                   
     00000000  s__HEADER_LCD0                  
     00000000  s__HEADER_SIO                   
     00000000  s__HEADER_SIO0                  
     00000000  s__HEADER_TIMER                 
     00000000  s__HEADER_TIMER0                
     00000000  s__HEADERa                      
     00000000  s__HEADERb                      
     00000000  s__HEADERc                      
     00000000  s__HEADERd                      
     00000000  s__HEADERe                      
     00000000  s__HEADERf                      
     00000000  s__HRAM                         
ASxxxx Linker V03.00/V05.40 + sdld,  page 2.
Hexadecimal  [32-Bits]

Area                                    Addr        Size        Decimal Bytes (Attributes)
--------------------------------        ----        ----        ------- ----- ------------
.  .ABS.                            00000000    00000000 =           0. bytes (ABS,CON)

      Value  Global                              Global Defined In Module
      -----  --------------------------------   ------------------------
     00000000  s__HRAM12                       
     00000001  ___bank_VM_SGB                     vm_sgb
     00000001  ___bank_bg_logos_and_endings_ahh   bg_logos_and_endings_ahhhlo
     00000001  ___bank_bg_logos_and_endings_ahh   bg_logos_and_endings_ahhhlo_
     00000001  ___bank_bg_new_folder_top_down_t   bg_new_folder_top_down_towe_
     00000001  ___mute_mask_sound_legacy_1        sound_legacy_1
     00000001  b_platform_init                    platform
     00000001  b_platform_update                  platform
     00000001  b_ui_draw_frame                    ui
     00000001  b_ui_draw_text_buffer_char         ui
     00000001  b_ui_init                          ui
     00000001  b_ui_load_tiles                    ui
     00000001  b_ui_run_menu                      ui
     00000001  b_ui_run_modal                     ui
     00000001  b_ui_set_start_tile                ui
     00000001  l__GSFINAL                      
     00000001  l__HEADER0                      
     00000001  l__HEADER5                      
     00000001  l__HEADERa                      
     00000001  l__HEADERb                      
     00000001  l__HEADERc                      
     00000001  l__HEADERe                      
     00000001  l__HEADERf                      
     00000002  ___bank_ACTOR                      actor
     00000002  ___bank_VM_ACTOR                   vm_actor
     00000002  ___bank_bg_logos_and_endings_end   bg_logos_and_endings_ending
     00000002  ___bank_bg_logos_and_endings_end   bg_logos_and_endings_ending_
     00000002  ___bank_song_song_3_Data           song_song_3_Data
     00000002  b_activate_actor                   actor
     00000002  b_activate_actors_in_col           actor
     00000002  b_activate_actors_in_row           actor
     00000002  b_actor_at_tile                    actor
     00000002  b_actor_get_frame_offset           actor
     00000002  b_actor_in_front_of_player         actor
     00000002  b_actor_overlapping_bb             actor
     00000002  b_actor_overlapping_player         actor
     00000002  b_actor_set_anim_idle              actor
     00000002  b_actor_set_anim_moving            actor
     00000002  b_actor_set_dir                    actor
     00000002  b_actor_set_frame_offset           actor
     00000002  b_actor_set_frames                 actor
     00000002  b_actors_handle_player_collision   actor
     00000002  b_actors_init                      actor
     00000002  b_check_collision_in_direction     actor
     00000002  b_deactivate_actor                 actor
     00000002  b_player_init                      actor
     00000002  b_vm_actor_activate                vm_actor
     00000002  b_vm_actor_begin_update            vm_actor
     00000002  b_vm_actor_deactivate              vm_actor
     00000002  b_vm_actor_emote                   vm_actor
     00000002  b_vm_actor_get_angle               vm_actor
ASxxxx Linker V03.00/V05.40 + sdld,  page 3.
Hexadecimal  [32-Bits]

Area                                    Addr        Size        Decimal Bytes (Attributes)
--------------------------------        ----        ----        ------- ----- ------------
.  .ABS.                            00000000    00000000 =           0. bytes (ABS,CON)

      Value  Global                              Global Defined In Module
      -----  --------------------------------   ------------------------
     00000002  b_vm_actor_get_anim_frame          vm_actor
     00000002  b_vm_actor_get_dir                 vm_actor
     00000002  b_vm_actor_get_pos                 vm_actor
     00000002  b_vm_actor_move_cancel             vm_actor
     00000002  b_vm_actor_move_to                 vm_actor
     00000002  b_vm_actor_replace_tile            vm_actor
     00000002  b_vm_actor_set_anim                vm_actor
     00000002  b_vm_actor_set_anim_frame          vm_actor
     00000002  b_vm_actor_set_anim_set            vm_actor
     00000002  b_vm_actor_set_anim_tick           vm_actor
     00000002  b_vm_actor_set_bounds              vm_actor
     00000002  b_vm_actor_set_dir                 vm_actor
     00000002  b_vm_actor_set_flags               vm_actor
     00000002  b_vm_actor_set_move_speed          vm_actor
     00000002  b_vm_actor_set_pos                 vm_actor
     00000002  b_vm_actor_set_spritesheet         vm_actor
     00000002  b_vm_actor_set_spritesheet_by_re   vm_actor
     00000002  b_vm_actor_terminate_update        vm_actor
     00000002  l__HEADER10                     
     00000002  l__HEADER6                      
     00000002  l__HEADERd                      
     00000003  ___bank_VM_MAIN                    vm
     00000003  ___bank_bg_new_folder_kitchen_to   bg_new_folder_kitchen_tower_
     00000003  ___bank_font_rips_commodore_64_a   font_rips_commodore_64_asci
     00000003  ___bank_scene_12_actors            scene_12_actors
     00000003  ___bank_song_song_1_Data           song_song_1_Data
     00000003  ___bank_song_song_4_Data           song_song_4_Data
     00000003  b_script_detach_hthread            vm
     00000003  b_script_execute                   vm
     00000003  b_script_runner_init               vm
     00000003  b_script_terminate                 vm
     00000003  b_vm_call                          vm
     00000003  b_vm_call_far                      vm
     00000003  b_vm_get_indirect                  vm
     00000003  b_vm_get_tlocal                    vm
     00000003  b_vm_idle                          vm
     00000003  b_vm_if                            vm
     00000003  b_vm_if_const                      vm
     00000003  b_vm_init_rng                      vm
     00000003  b_vm_invoke                        vm
     00000003  b_vm_join                          vm
     00000003  b_vm_jump                          vm
     00000003  b_vm_lock                          vm
     00000003  b_vm_loop                          vm
     00000003  b_vm_memcpy                        vm
     00000003  b_vm_memset                        vm
     00000003  b_vm_poll_loaded                   vm
     00000003  b_vm_pop                           vm
     00000003  b_vm_push                          vm
     00000003  b_vm_push_reference                vm
     00000003  b_vm_push_value                    vm
ASxxxx Linker V03.00/V05.40 + sdld,  page 4.
Hexadecimal  [32-Bits]

Area                                    Addr        Size        Decimal Bytes (Attributes)
--------------------------------        ----        ----        ------- ----- ------------
.  .ABS.                            00000000    00000000 =           0. bytes (ABS,CON)

      Value  Global                              Global Defined In Module
      -----  --------------------------------   ------------------------
     00000003  b_vm_push_value_ind                vm
     00000003  b_vm_raise                         vm
     00000003  b_vm_rand                          vm
     00000003  b_vm_reserve                       vm
     00000003  b_vm_ret                           vm
     00000003  b_vm_ret_far                       vm
     00000003  b_vm_set                           vm
     00000003  b_vm_set_const                     vm
     00000003  b_vm_set_indirect                  vm
     00000003  b_vm_terminate                     vm
     00000003  b_vm_test_terminate                vm
     00000003  b_vm_unlock                        vm
     00000003  b_wait_frames                      vm
     00000003  l__HEADER9                      
     00000003  l__HEADER_LCD0                  
     00000003  l__HRAM12                       
     00000004  ___bank_bg_new_folder_inner_east   bg_new_folder_inner_east_ga_
     00000004  ___bank_bg_new_folder_kitchen_to   bg_new_folder_kitchen_tower_
     00000004  ___bank_bg_new_folder_kitchen_to   bg_new_folder_kitchen_tower_
     00000004  ___bank_bg_new_folder_nw_tower1_   bg_new_folder_nw_tower1_tile
     00000004  ___bank_bg_new_folder_southwest2   bg_new_folder_southwest2_til
     00000004  ___bank_scene_19_sprites           scene_19_sprites
     00000004  ___bank_trigger_100_interact       trigger_100_interact
     00000004  b_shmup_init                       shmup
     00000004  b_shmup_update                     shmup
     00000004  l__CRASH_HEADER1                
     00000004  l__HEADER_SIO0                  
     00000004  l__HEADER_TIMER0                
     00000005  ___bank_bg_new_folder_inner_east   bg_new_folder_inner_east_ga_
     00000005  ___bank_bg_new_folder_nw_tower2_   bg_new_folder_nw_tower2_tile
     00000005  ___bank_bg_new_folder_se1_tilese   bg_new_folder_se1_tileset
     00000005  ___bank_bg_new_folder_se2_tilese   bg_new_folder_se2_tileset
     00000005  ___bank_bg_new_folder_south_dam2   bg_new_folder_south_dam2_til
     00000005  ___bank_bg_new_folder_southwest1   bg_new_folder_southwest1_til
     00000005  ___bank_sprite_cursors_default_c   sprite_cursors_default_curs
     00000005  b_do_load_palette                  data_manager
     00000005  b_load_background                  data_manager
     00000005  b_load_bkg_tileset                 data_manager
     00000005  b_load_bounds                      data_manager
     00000005  b_load_emote                       data_manager
     00000005  b_load_init                        data_manager
     00000005  b_load_player                      data_manager
     00000005  b_load_scene                       data_manager
     00000005  b_load_sprite                      data_manager
     00000005  l__CRASH_HEADER0                
     00000005  l__HEADER1                      
     00000006  ___bank_VM_UI                      vm_ui
     00000006  ___bank_bg_mapv2_tileset           bg_mapv2_tileset
     00000006  ___bank_bg_new_folder_gate_close   bg_new_folder_gate_close_til
     00000006  ___bank_bg_new_folder_gate_tiles   bg_new_folder_gate_tileset
     00000006  ___bank_bg_new_folder_kitchen_to   bg_new_folder_kitchen_tower_
ASxxxx Linker V03.00/V05.40 + sdld,  page 5.
Hexadecimal  [32-Bits]

Area                                    Addr        Size        Decimal Bytes (Attributes)
--------------------------------        ----        ----        ------- ----- ------------
.  .ABS.                            00000000    00000000 =           0. bytes (ABS,CON)

      Value  Global                              Global Defined In Module
      -----  --------------------------------   ------------------------
     00000006  ___bank_bg_new_folder_top_down_c   bg_new_folder_top_down_c_2_t
     00000006  ___bank_bg_new_folder_top_down_t   bg_new_folder_top_down_towe_
     00000006  ___bank_sprite_animated_animals_   sprite_animated_animals_cro_
     00000006  b_adventure_init                   adventure
     00000006  b_adventure_update                 adventure
     00000006  b_scroll_init                      scroll
     00000006  b_scroll_repaint                   scroll
     00000006  b_scroll_reset                     scroll
     00000006  b_scroll_update                    scroll
     00000006  b_vm_choice                        vm_ui
     00000006  b_vm_display_text                  vm_ui
     00000006  b_vm_overlay_clear                 vm_ui
     00000006  b_vm_overlay_move_to               vm_ui
     00000006  b_vm_overlay_scroll                vm_ui
     00000006  b_vm_overlay_set_map               vm_ui
     00000006  b_vm_overlay_set_scroll            vm_ui
     00000006  b_vm_overlay_set_submap            vm_ui
     00000006  b_vm_overlay_set_submap_ex         vm_ui
     00000006  b_vm_overlay_setpos                vm_ui
     00000006  b_vm_overlay_show                  vm_ui
     00000006  b_vm_overlay_wait                  vm_ui
     00000006  b_vm_set_font                      vm_ui
     00000006  b_vm_set_text_sound                vm_ui
     00000006  b_vm_switch_text_layer             vm_ui
     00000006  l__HEADER8                      
     00000007  ___bank_VM_GAMEBOY                 vm_gameboy
     00000007  ___bank_bg_new_folder_gate_close   bg_new_folder_gate_close_til
     00000007  ___bank_bg_new_folder_greathall_   bg_new_folder_greathall_tile
     00000007  ___bank_bg_new_folder_south_dam1   bg_new_folder_south_dam1_til
     00000007  ___bank_bg_new_folder_top_down_c   bg_new_folder_top_down_c_1__
     00000007  ___bank_bg_new_folder_top_down_k   bg_new_folder_top_down_kitc_
     00000007  ___bank_bg_new_folder_top_down_t   bg_new_folder_top_down_towe_
     00000007  ___bank_bg_stars_tilemap_attr      bg_stars_tilemap_attr
     00000007  ___bank_scene_17_collisions        scene_17_collisions
     00000007  ___bank_scene_22_sprites           scene_22_sprites
     00000007  ___bank_scene_30_init              scene_30_init
     00000007  b_projectile_launch                projectiles
     00000007  b_projectiles_init                 projectiles
     00000007  b_topdown_init                     topdown
     00000007  b_topdown_update                   topdown
     00000007  b_vm_context_prepare               vm_gameboy
     00000007  b_vm_fade                          vm_gameboy
     00000007  b_vm_get_tile_xy                   vm_gameboy
     00000007  b_vm_input_attach                  vm_gameboy
     00000007  b_vm_input_detach                  vm_gameboy
     00000007  b_vm_input_get                     vm_gameboy
     00000007  b_vm_input_wait                    vm_gameboy
     00000007  b_vm_load_tileset                  vm_gameboy
     00000007  b_vm_poll                          vm_gameboy
     00000007  b_vm_replace_tile                  vm_gameboy
     00000007  b_vm_replace_tile_xy               vm_gameboy
ASxxxx Linker V03.00/V05.40 + sdld,  page 6.
Hexadecimal  [32-Bits]

Area                                    Addr        Size        Decimal Bytes (Attributes)
--------------------------------        ----        ----        ------- ----- ------------
.  .ABS.                            00000000    00000000 =           0. bytes (ABS,CON)

      Value  Global                              Global Defined In Module
      -----  --------------------------------   ------------------------
     00000007  b_vm_rumble                        vm_gameboy
     00000007  b_vm_set_sprite_mode               vm_gameboy
     00000007  b_vm_set_sprites_visible           vm_gameboy
     00000007  b_vm_timer_prepare                 vm_gameboy
     00000007  b_vm_timer_reset                   vm_gameboy
     00000007  b_vm_timer_set                     vm_gameboy
     00000007  b_vm_timer_stop                    vm_gameboy
     00000007  l__HEADER2                      
     00000008  ___bank_VM_CAMERA                  vm_camera
     00000008  ___bank_VM_SIO                     vm_sio
     00000008  ___bank_actor_1_interact           actor_1_interact
     00000008  ___bank_bg_new_folder_gate_close   bg_new_folder_gate_close_til
     00000008  ___bank_bg_new_folder_kitchen_to   bg_new_folder_kitchen_tower_
     00000008  ___bank_bg_new_folder_kitchen_to   bg_new_folder_kitchen_tower_
     00000008  ___bank_bg_stars_tilemap           bg_stars_tilemap
     00000008  ___bank_scene_12_collisions        scene_12_collisions
     00000008  ___bank_scene_3_init               scene_3_init
     00000008  ___bank_scene_6_collisions         scene_6_collisions
     00000008  ___bank_scene_8_init               scene_8_init
     00000008  ___bank_trigger_97_interact        trigger_97_interact
     00000008  ___mute_mask_sound_legacy_0        sound_legacy_0
     00000008  b___HandleCrash_banked             
     00000008  b_atan2                            math_atan2
     00000008  b_camera_shake_frames              vm_camera
     00000008  b_core_reset                       core
     00000008  b_core_run                         core
     00000008  b_data_clear                       load_save
     00000008  b_data_init                        load_save
     00000008  b_data_load                        load_save
     00000008  b_data_peek                        load_save
     00000008  b_data_save                        load_save
     00000008  b_fade_applypalettechange          fade_manager
     00000008  b_fade_in                          fade_manager
     00000008  b_fade_in_modal                    fade_manager
     00000008  b_fade_init                        fade_manager
     00000008  b_fade_out                         fade_manager
     00000008  b_fade_out_modal                   fade_manager
     00000008  b_fade_setspeed                    fade_manager
     00000008  b_fade_update                      fade_manager
     00000008  b_gbprinter_detect                 gbprinter
     00000008  b_gbprinter_print_overlay          gbprinter
     00000008  b_pointnclick_init                 pointnclick
     00000008  b_pointnclick_update               pointnclick
     00000008  b_trigger_activate_at              trigger
     00000008  b_trigger_activate_at_intersecti   trigger
     00000008  b_trigger_at_intersection          trigger
     00000008  b_trigger_at_tile                  trigger
     00000008  b_trigger_interact                 trigger
     00000008  b_trigger_reset                    trigger
     00000008  b_vm_camera_move_to                vm_camera
     00000008  b_vm_camera_set_pos                vm_camera
ASxxxx Linker V03.00/V05.40 + sdld,  page 7.
Hexadecimal  [32-Bits]

Area                                    Addr        Size        Decimal Bytes (Attributes)
--------------------------------        ----        ----        ------- ----- ------------
.  .ABS.                            00000000    00000000 =           0. bytes (ABS,CON)

      Value  Global                              Global Defined In Module
      -----  --------------------------------   ------------------------
     00000008  b_vm_sio_exchange                  vm_sio
     00000008  b_vm_sio_set_mode                  vm_sio
     00000008  l__HEADER3                      
     00000009  ___bank_VM_RTC                     vm_rtc
     00000009  ___bank_actor_9_interact           actor_9_interact
     00000009  ___bank_bg_new_folder_gate_tilem   bg_new_folder_gate_tilemap
     00000009  ___bank_bg_new_folder_gate_tilem   bg_new_folder_gate_tilemap_a
     00000009  ___bank_bg_new_folder_greathall_   bg_new_folder_greathall_tile
     00000009  ___bank_bg_new_folder_greathall_   bg_new_folder_greathall_tile
     00000009  ___bank_bg_new_folder_inner_east   bg_new_folder_inner_east_ga_
     00000009  ___bank_bg_new_folder_inner_east   bg_new_folder_inner_east_ga_
     00000009  ___bank_bg_new_folder_inner_east   bg_new_folder_inner_east_ga_
     00000009  ___bank_bg_new_folder_inner_east   bg_new_folder_inner_east_ga_
     00000009  ___bank_bg_new_folder_nw_tower1_   bg_new_folder_nw_tower1_tile
     00000009  ___bank_bg_new_folder_nw_tower1_   bg_new_folder_nw_tower1_tile
     00000009  ___bank_bg_new_folder_nw_tower2_   bg_new_folder_nw_tower2_tile
     00000009  ___bank_bg_new_folder_nw_tower2_   bg_new_folder_nw_tower2_tile
     00000009  ___bank_bg_new_folder_south_dam1   bg_new_folder_south_dam1_til
     00000009  ___bank_bg_new_folder_south_dam1   bg_new_folder_south_dam1_til
     00000009  ___bank_bg_new_folder_south_dam2   bg_new_folder_south_dam2_til
     00000009  ___bank_bg_new_folder_south_dam2   bg_new_folder_south_dam2_til
     00000009  ___bank_scene_0_sprites            scene_0_sprites
     00000009  ___bank_scene_13_collisions        scene_13_collisions
     00000009  ___bank_scene_14_collisions        scene_14_collisions
     00000009  ___bank_scene_15_collisions        scene_15_collisions
     00000009  ___bank_scene_23_sprites           scene_23_sprites
     00000009  ___bank_scene_30_collisions        scene_30_collisions
     00000009  ___bank_scene_31_init              scene_31_init
     00000009  ___bank_scene_3_collisions         scene_3_collisions
     00000009  ___bank_scene_4_collisions         scene_4_collisions
     00000009  ___bank_scene_5_collisions         scene_5_collisions
     00000009  ___bank_scene_7_collisions         scene_7_collisions
     00000009  ___bank_scene_8_collisions         scene_8_collisions
     00000009  b_vm_rtc_get                       vm_rtc
     00000009  b_vm_rtc_latch                     vm_rtc
     00000009  b_vm_rtc_set                       vm_rtc
     00000009  b_vm_rtc_start                     vm_rtc
     0000000A  ___bank_VM_PALETTE                 vm_palette
     0000000A  ___bank_actor_0_interact           actor_0_interact
     0000000A  ___bank_actor_3_interact           actor_3_interact
     0000000A  ___bank_actor_4_interact           actor_4_interact
     0000000A  ___bank_bg_logos_and_endings_ahh   bg_logos_and_endings_ahhhlo_
     0000000A  ___bank_bg_logos_and_endings_ahh   bg_logos_and_endings_ahhhlo_
     0000000A  ___bank_bg_logos_and_endings_end   bg_logos_and_endings_ending_
     0000000A  ___bank_bg_logos_and_endings_end   bg_logos_and_endings_ending_
     0000000A  ___bank_bg_mapv2_tilemap           bg_mapv2_tilemap
     0000000A  ___bank_bg_mapv2_tilemap_attr      bg_mapv2_tilemap_attr
     0000000A  ___bank_bg_new_folder_se1_tilema   bg_new_folder_se1_tilemap
     0000000A  ___bank_bg_new_folder_se1_tilema   bg_new_folder_se1_tilemap_at
     0000000A  ___bank_bg_new_folder_se2_tilema   bg_new_folder_se2_tilemap
     0000000A  ___bank_bg_new_folder_se2_tilema   bg_new_folder_se2_tilemap_at
ASxxxx Linker V03.00/V05.40 + sdld,  page 8.
Hexadecimal  [32-Bits]

Area                                    Addr        Size        Decimal Bytes (Attributes)
--------------------------------        ----        ----        ------- ----- ------------
.  .ABS.                            00000000    00000000 =           0. bytes (ABS,CON)

      Value  Global                              Global Defined In Module
      -----  --------------------------------   ------------------------
     0000000A  ___bank_bg_new_folder_southwest1   bg_new_folder_southwest1_til
     0000000A  ___bank_bg_new_folder_southwest1   bg_new_folder_southwest1_til
     0000000A  ___bank_bg_new_folder_southwest2   bg_new_folder_southwest2_til
     0000000A  ___bank_bg_new_folder_southwest2   bg_new_folder_southwest2_til
     0000000A  ___bank_bg_new_folder_top_down_c   bg_new_folder_top_down_c_1__
     0000000A  ___bank_bg_new_folder_top_down_c   bg_new_folder_top_down_c_1__
     0000000A  ___bank_bg_new_folder_top_down_c   bg_new_folder_top_down_c_1__
     0000000A  ___bank_bg_new_folder_top_down_c   bg_new_folder_top_down_c_2_t
     0000000A  ___bank_bg_new_folder_top_down_c   bg_new_folder_top_down_c_2_t
     0000000A  ___bank_bg_new_folder_top_down_c   bg_new_folder_top_down_c_2_t
     0000000A  ___bank_bg_new_folder_top_down_c   bg_new_folder_top_down_c_2_t
     0000000A  ___bank_bg_new_folder_top_down_c   bg_new_folder_top_down_c_2_t
     0000000A  ___bank_bg_new_folder_top_down_i   bg_new_folder_top_down_inne_
     0000000A  ___bank_bg_new_folder_top_down_t   bg_new_folder_top_down_towe_
     0000000A  ___bank_scene_10_collisions        scene_10_collisions
     0000000A  ___bank_scene_18_collisions        scene_18_collisions
     0000000A  ___bank_scene_23_collisions        scene_23_collisions
     0000000A  ___bank_scene_25_collisions        scene_25_collisions
     0000000A  ___bank_scene_27_collisions        scene_27_collisions
     0000000A  ___bank_scene_28_init              scene_28_init
     0000000A  ___bank_scene_7_init               scene_7_init
     0000000A  ___bank_scene_9_collisions         scene_9_collisions
     0000000A  ___bank_sprite_animated_animals_   sprite_animated_animals_sea_
     0000000A  ___bank_trigger_86_interact        trigger_86_interact
     0000000A  ___bank_trigger_96_interact        trigger_96_interact
     0000000A  b_set_sgb_border                   sgb_border
     0000000A  b_vm_load_palette                  vm_palette
     0000000B  ___bank_VM_MATH                    vm_math
     0000000B  ___bank_VM_MUSIC                   vm_music
     0000000B  ___bank_actor_2_interact           actor_2_interact
     0000000B  ___bank_actor_5_interact           actor_5_interact
     0000000B  ___bank_bg_mapv2                   bg_mapv2
     0000000B  ___bank_bg_new_folder_top_down_c   bg_new_folder_top_down_c_1__
     0000000B  ___bank_bg_new_folder_top_down_i   bg_new_folder_top_down_inne_
     0000000B  ___bank_bg_new_folder_top_down_i   bg_new_folder_top_down_inne_
     0000000B  ___bank_bg_new_folder_top_down_k   bg_new_folder_top_down_kitc_
     0000000B  ___bank_bg_new_folder_top_down_k   bg_new_folder_top_down_kitc_
     0000000B  ___bank_bg_new_folder_top_down_k   bg_new_folder_top_down_kitc_
     0000000B  ___bank_bg_new_folder_top_down_k   bg_new_folder_top_down_kitc_
     0000000B  ___bank_bg_new_folder_top_down_t   bg_new_folder_top_down_towe_
     0000000B  ___bank_bg_new_folder_top_down_t   bg_new_folder_top_down_towe_
     0000000B  ___bank_bg_new_folder_top_down_t   bg_new_folder_top_down_towe_
     0000000B  ___bank_bg_new_folder_top_down_t   bg_new_folder_top_down_towe_
     0000000B  ___bank_bg_new_folder_top_down_t   bg_new_folder_top_down_towe_
     0000000B  ___bank_bg_new_folder_top_down_t   bg_new_folder_top_down_towe_
     0000000B  ___bank_bg_new_folder_top_down_t   bg_new_folder_top_down_towe_
     0000000B  ___bank_bg_new_folder_top_down_t   bg_new_folder_top_down_towe_
     0000000B  ___bank_bg_new_folder_top_down_t   bg_new_folder_top_down_towe_
     0000000B  ___bank_bg_new_folder_top_down_t   bg_new_folder_top_down_towe_
     0000000B  ___bank_bg_new_folder_top_down_t   bg_new_folder_top_down_towe_
     0000000B  ___bank_bg_new_folder_top_down_t   bg_new_folder_top_down_towe_
ASxxxx Linker V03.00/V05.40 + sdld,  page 9.
Hexadecimal  [32-Bits]

Area                                    Addr        Size        Decimal Bytes (Attributes)
--------------------------------        ----        ----        ------- ----- ------------
.  .ABS.                            00000000    00000000 =           0. bytes (ABS,CON)

      Value  Global                              Global Defined In Module
      -----  --------------------------------   ------------------------
     0000000B  ___bank_bg_new_folder_top_down_t   bg_new_folder_top_down_towe_
     0000000B  ___bank_bg_new_folder_top_down_t   bg_new_folder_top_down_towe_
     0000000B  ___bank_scene_0_actors             scene_0_actors
     0000000B  ___bank_scene_0_collisions         scene_0_collisions
     0000000B  ___bank_scene_16_collisions        scene_16_collisions
     0000000B  ___bank_scene_19_collisions        scene_19_collisions
     0000000B  ___bank_scene_1_collisions         scene_1_collisions
     0000000B  ___bank_scene_20_actors            scene_20_actors
     0000000B  ___bank_scene_20_collisions        scene_20_collisions
     0000000B  ___bank_scene_21_actors            scene_21_actors
     0000000B  ___bank_scene_21_collisions        scene_21_collisions
     0000000B  ___bank_scene_22_collisions        scene_22_collisions
     0000000B  ___bank_scene_24_actors            scene_24_actors
     0000000B  ___bank_scene_24_collisions        scene_24_collisions
     0000000B  ___bank_scene_26_collisions        scene_26_collisions
     0000000B  ___bank_scene_28_collisions        scene_28_collisions
     0000000B  ___bank_scene_29_collisions        scene_29_collisions
     0000000B  ___bank_scene_2_collisions         scene_2_collisions
     0000000B  ___bank_scene_31_collisions        scene_31_collisions
     0000000B  ___bank_scene_32_collisions        scene_32_collisions
     0000000B  ___bank_sprite_actor_animated_ti   sprite_actor_animated_tilese
     0000000B  ___bank_trigger_113_interact       trigger_113_interact
     0000000B  ___bank_trigger_91_interact        trigger_91_interact
     0000000B  ___bank_trigger_99_interact        trigger_99_interact
     0000000B  b_vm_cos_scale                     vm_math
     0000000B  b_vm_music_mute                    vm_music
     0000000B  b_vm_music_play                    vm_music
     0000000B  b_vm_music_routine                 vm_music
     0000000B  b_vm_music_setpos                  vm_music
     0000000B  b_vm_music_stop                    vm_music
     0000000B  b_vm_sfx_play                      vm_music
     0000000B  b_vm_sin_scale                     vm_math
     0000000B  b_vm_sound_mastervol               vm_music
     0000000C  ___bank_VM_GBPRINTER               vm_gbprinter
     0000000C  ___bank_VM_LOAD_SAVE               vm_load_save
     0000000C  ___bank_VM_PROJECTILE              vm_projectiles
     0000000C  ___bank_VM_SCENE                   vm_scene
     0000000C  ___bank_actor_10_interact          actor_10_interact
     0000000C  ___bank_actor_46_interact          actor_46_interact
     0000000C  ___bank_actor_4_update             actor_4_update
     0000000C  ___bank_actor_6_interact           actor_6_interact
     0000000C  ___bank_actor_7_interact           actor_7_interact
     0000000C  ___bank_bg_new_folder_top_down_c   bg_new_folder_top_down_c_1__
     0000000C  ___bank_bg_new_folder_top_down_k   bg_new_folder_top_down_kitc_
     0000000C  ___bank_bg_new_folder_top_down_t   bg_new_folder_top_down_towe_
     0000000C  ___bank_bg_new_folder_top_down_t   bg_new_folder_top_down_towe_
     0000000C  ___bank_bg_new_folder_top_down_t   bg_new_folder_top_down_towe_
     0000000C  ___bank_bg_stars_tileset           bg_stars_tileset
     0000000C  ___bank_emote_question             emote_question
     0000000C  ___bank_emote_shock                emote_shock
     0000000C  ___bank_emote_sleep                emote_sleep
ASxxxx Linker V03.00/V05.40 + sdld,  page 10.
Hexadecimal  [32-Bits]

Area                                    Addr        Size        Decimal Bytes (Attributes)
--------------------------------        ----        ----        ------- ----- ------------
.  .ABS.                            00000000    00000000 =           0. bytes (ABS,CON)

      Value  Global                              Global Defined In Module
      -----  --------------------------------   ------------------------
     0000000C  ___bank_frame_image                frame_image
     0000000C  ___bank_palette_0                  palette_0
     0000000C  ___bank_palette_1                  palette_1
     0000000C  ___bank_palette_2                  palette_2
     0000000C  ___bank_palette_3                  palette_3
     0000000C  ___bank_scene_0                    scene_0
     0000000C  ___bank_scene_0_init               scene_0_init
     0000000C  ___bank_scene_0_triggers           scene_0_triggers
     0000000C  ___bank_scene_1                    scene_1
     0000000C  ___bank_scene_10                   scene_10
     0000000C  ___bank_scene_10_init              scene_10_init
     0000000C  ___bank_scene_12                   scene_12
     0000000C  ___bank_scene_12_init              scene_12_init
     0000000C  ___bank_scene_13                   scene_13
     0000000C  ___bank_scene_14                   scene_14
     0000000C  ___bank_scene_15                   scene_15
     0000000C  ___bank_scene_16                   scene_16
     0000000C  ___bank_scene_17                   scene_17
     0000000C  ___bank_scene_18                   scene_18
     0000000C  ___bank_scene_19                   scene_19
     0000000C  ___bank_scene_19_actors            scene_19_actors
     0000000C  ___bank_scene_19_init              scene_19_init
     0000000C  ___bank_scene_1_init               scene_1_init
     0000000C  ___bank_scene_2                    scene_2
     0000000C  ___bank_scene_20                   scene_20
     0000000C  ___bank_scene_20_init              scene_20_init
     0000000C  ___bank_scene_20_triggers          scene_20_triggers
     0000000C  ___bank_scene_21                   scene_21
     0000000C  ___bank_scene_21_init              scene_21_init
     0000000C  ___bank_scene_21_triggers          scene_21_triggers
     0000000C  ___bank_scene_22                   scene_22
     0000000C  ___bank_scene_22_actors            scene_22_actors
     0000000C  ___bank_scene_23                   scene_23
     0000000C  ___bank_scene_23_actors            scene_23_actors
     0000000C  ___bank_scene_24                   scene_24
     0000000C  ___bank_scene_24_init              scene_24_init
     0000000C  ___bank_scene_24_triggers          scene_24_triggers
     0000000C  ___bank_scene_25                   scene_25
     0000000C  ___bank_scene_25_actors            scene_25_actors
     0000000C  ___bank_scene_26                   scene_26
     0000000C  ___bank_scene_26_actors            scene_26_actors
     0000000C  ___bank_scene_27                   scene_27
     0000000C  ___bank_scene_27_actors            scene_27_actors
     0000000C  ___bank_scene_28                   scene_28
     0000000C  ___bank_scene_29                   scene_29
     0000000C  ___bank_scene_29_actors            scene_29_actors
     0000000C  ___bank_scene_29_init              scene_29_init
     0000000C  ___bank_scene_2_triggers           scene_2_triggers
     0000000C  ___bank_scene_3                    scene_3
     0000000C  ___bank_scene_30                   scene_30
     0000000C  ___bank_scene_31                   scene_31
ASxxxx Linker V03.00/V05.40 + sdld,  page 11.
Hexadecimal  [32-Bits]

Area                                    Addr        Size        Decimal Bytes (Attributes)
--------------------------------        ----        ----        ------- ----- ------------
.  .ABS.                            00000000    00000000 =           0. bytes (ABS,CON)

      Value  Global                              Global Defined In Module
      -----  --------------------------------   ------------------------
     0000000C  ___bank_scene_32                   scene_32
     0000000C  ___bank_scene_32_init              scene_32_init
     0000000C  ___bank_scene_4                    scene_4
     0000000C  ___bank_scene_5                    scene_5
     0000000C  ___bank_scene_6                    scene_6
     0000000C  ___bank_scene_7                    scene_7
     0000000C  ___bank_scene_8                    scene_8
     0000000C  ___bank_scene_9                    scene_9
     0000000C  ___bank_script_4                   script_4
     0000000C  ___bank_script_7                   script_7
     0000000C  ___bank_script_engine_init         
     0000000C  ___bank_sprite_actor_animated      sprite_actor_animated
     0000000C  ___bank_sprite_animated_animals_   sprite_animated_animals_cro
     0000000C  ___bank_sprite_animated_animals_   sprite_animated_animals_cro_
     0000000C  ___bank_sprite_animated_animals_   sprite_animated_animals_cro_
     0000000C  ___bank_sprite_animated_animals_   sprite_animated_animals_sea
     0000000C  ___bank_sprite_animated_crosshai   sprite_animated_crosshairs__
     0000000C  ___bank_sprite_animated_crosshai   sprite_animated_crosshairs__
     0000000C  ___bank_sprite_animated_crosshai   sprite_animated_crosshairs__
     0000000C  ___bank_sprite_animated_crosshai   sprite_animated_crosshairs__
     0000000C  ___bank_sprite_animated_people_s   sprite_animated_people_spin
     0000000C  ___bank_sprite_animated_people_s   sprite_animated_people_spin_
     0000000C  ___bank_sprite_static_cats_cat_w   sprite_static_cats_cat_whit_
     0000000C  ___bank_trigger_101_interact       trigger_101_interact
     0000000C  ___bank_trigger_102_interact       trigger_102_interact
     0000000C  ___bank_trigger_103_interact       trigger_103_interact
     0000000C  ___bank_trigger_107_interact       trigger_107_interact
     0000000C  ___bank_trigger_109_interact       trigger_109_interact
     0000000C  ___bank_trigger_111_interact       trigger_111_interact
     0000000C  ___bank_trigger_112_interact       trigger_112_interact
     0000000C  ___bank_trigger_114_interact       trigger_114_interact
     0000000C  ___bank_trigger_115_interact       trigger_115_interact
     0000000C  ___bank_trigger_116_interact       trigger_116_interact
     0000000C  ___bank_trigger_117_interact       trigger_117_interact
     0000000C  ___bank_trigger_118_interact       trigger_118_interact
     0000000C  ___bank_trigger_120_interact       trigger_120_interact
     0000000C  ___bank_trigger_122_interact       trigger_122_interact
     0000000C  ___bank_trigger_123_interact       trigger_123_interact
     0000000C  ___bank_trigger_124_interact       trigger_124_interact
     0000000C  ___bank_trigger_13_interact        trigger_13_interact
     0000000C  ___bank_trigger_14_interact        trigger_14_interact
     0000000C  ___bank_trigger_16_interact        trigger_16_interact
     0000000C  ___bank_trigger_18_interact        trigger_18_interact
     0000000C  ___bank_trigger_29_interact        trigger_29_interact
     0000000C  ___bank_trigger_33_interact        trigger_33_interact
     0000000C  ___bank_trigger_35_interact        trigger_35_interact
     0000000C  ___bank_trigger_43_interact        trigger_43_interact
     0000000C  ___bank_trigger_44_interact        trigger_44_interact
     0000000C  ___bank_trigger_4_interact         trigger_4_interact
     0000000C  ___bank_trigger_52_interact        trigger_52_interact
     0000000C  ___bank_trigger_5_interact         trigger_5_interact
ASxxxx Linker V03.00/V05.40 + sdld,  page 12.
Hexadecimal  [32-Bits]

Area                                    Addr        Size        Decimal Bytes (Attributes)
--------------------------------        ----        ----        ------- ----- ------------
.  .ABS.                            00000000    00000000 =           0. bytes (ABS,CON)

      Value  Global                              Global Defined In Module
      -----  --------------------------------   ------------------------
     0000000C  ___bank_trigger_60_interact        trigger_60_interact
     0000000C  ___bank_trigger_61_interact        trigger_61_interact
     0000000C  ___bank_trigger_64_interact        trigger_64_interact
     0000000C  ___bank_trigger_67_interact        trigger_67_interact
     0000000C  ___bank_trigger_68_interact        trigger_68_interact
     0000000C  ___bank_trigger_69_interact        trigger_69_interact
     0000000C  ___bank_trigger_6_interact         trigger_6_interact
     0000000C  ___bank_trigger_70_interact        trigger_70_interact
     0000000C  ___bank_trigger_71_interact        trigger_71_interact
     0000000C  ___bank_trigger_72_interact        trigger_72_interact
     0000000C  ___bank_trigger_73_interact        trigger_73_interact
     0000000C  ___bank_trigger_74_interact        trigger_74_interact
     0000000C  ___bank_trigger_75_interact        trigger_75_interact
     0000000C  ___bank_trigger_76_interact        trigger_76_interact
     0000000C  ___bank_trigger_77_interact        trigger_77_interact
     0000000C  ___bank_trigger_82_interact        trigger_82_interact
     0000000C  ___bank_trigger_83_interact        trigger_83_interact
     0000000C  ___bank_trigger_84_interact        trigger_84_interact
     0000000C  ___bank_trigger_85_interact        trigger_85_interact
     0000000C  ___bank_trigger_87_interact        trigger_87_interact
     0000000C  ___bank_trigger_88_interact        trigger_88_interact
     0000000C  ___bank_trigger_89_interact        trigger_89_interact
     0000000C  ___bank_trigger_8_interact         trigger_8_interact
     0000000C  ___bank_trigger_90_interact        trigger_90_interact
     0000000C  ___bank_trigger_92_interact        trigger_92_interact
     0000000C  ___bank_trigger_93_interact        trigger_93_interact
     0000000C  ___bank_trigger_94_interact        trigger_94_interact
     0000000C  ___bank_trigger_95_interact        trigger_95_interact
     0000000C  ___bank_trigger_9_interact         trigger_9_interact
     0000000C  __start_save                    
     0000000C  b_CGBZeroPalette                   palette
     0000000C  b_erase_flash                      
     0000000C  b_events_init                      events
     0000000C  b_itoa_fmt                         vm_ui_a
     0000000C  b_music_events_poll                music_manager
     0000000C  b_music_init_driver                music_manager
     0000000C  b_music_init_events                music_manager
     0000000C  b_palette_init                     palette
     0000000C  b_restore_sram                     flasher
     0000000C  b_restore_sram_bank                flasher
     0000000C  b_save_sram                        flasher
     0000000C  b_save_sram_banks                  
     0000000C  b_scroll_rect                      
     0000000C  b_timers_init                      events
     0000000C  b_vm_print_detect                  vm_gbprinter
     0000000C  b_vm_print_overlay                 vm_gbprinter
     0000000C  b_vm_projectile_launch             vm_projectiles
     0000000C  b_vm_projectile_load_type          vm_projectiles
     0000000C  b_vm_save_clear                    vm_load_save
     0000000C  b_vm_save_peek                     vm_load_save
     0000000C  b_vm_scene_pop                     vm_scene
ASxxxx Linker V03.00/V05.40 + sdld,  page 13.
Hexadecimal  [32-Bits]

Area                                    Addr        Size        Decimal Bytes (Attributes)
--------------------------------        ----        ----        ------- ----- ------------
.  .ABS.                            00000000    00000000 =           0. bytes (ABS,CON)

      Value  Global                              Global Defined In Module
      -----  --------------------------------   ------------------------
     0000000C  b_vm_scene_pop_all                 vm_scene
     0000000C  b_vm_scene_push                    vm_scene
     0000000C  b_vm_scene_stack_reset             vm_scene
     0000000D  ___bank_actor_12_interact          actor_12_interact
     0000000D  ___bank_actor_13_interact          actor_13_interact
     0000000D  ___bank_actor_14_interact          actor_14_interact
     0000000D  ___bank_actor_15_interact          actor_15_interact
     0000000D  ___bank_actor_16_interact          actor_16_interact
     0000000D  ___bank_actor_17_interact          actor_17_interact
     0000000D  ___bank_actor_18_interact          actor_18_interact
     0000000D  ___bank_actor_19_interact          actor_19_interact
     0000000D  ___bank_actor_20_interact          actor_20_interact
     0000000D  ___bank_actor_21_interact          actor_21_interact
     0000000D  ___bank_actor_22_interact          actor_22_interact
     0000000D  ___bank_actor_23_interact          actor_23_interact
     0000000D  ___bank_actor_24_interact          actor_24_interact
     0000000D  ___bank_actor_25_interact          actor_25_interact
     0000000D  ___bank_actor_26_interact          actor_26_interact
     0000000D  ___bank_actor_27_interact          actor_27_interact
     0000000D  ___bank_actor_28_interact          actor_28_interact
     0000000D  ___bank_actor_29_interact          actor_29_interact
     0000000D  ___bank_actor_30_interact          actor_30_interact
     0000000D  ___bank_actor_31_interact          actor_31_interact
     0000000D  ___bank_actor_32_interact          actor_32_interact
     0000000D  ___bank_actor_34_interact          actor_34_interact
     0000000D  ___bank_actor_35_interact          actor_35_interact
     0000000D  ___bank_actor_36_interact          actor_36_interact
     0000000D  ___bank_actor_37_interact          actor_37_interact
     0000000D  ___bank_actor_38_interact          actor_38_interact
     0000000D  ___bank_actor_39_interact          actor_39_interact
     0000000D  ___bank_actor_40_interact          actor_40_interact
     0000000D  ___bank_actor_41_interact          actor_41_interact
     0000000D  ___bank_actor_42_interact          actor_42_interact
     0000000D  ___bank_actor_43_interact          actor_43_interact
     0000000D  ___bank_actor_44_interact          actor_44_interact
     0000000D  ___bank_actor_45_interact          actor_45_interact
     0000000D  ___bank_actor_8_interact           actor_8_interact
     0000000D  ___bank_bg_new_folder_gate         bg_new_folder_gate
     0000000D  ___bank_bg_new_folder_gate_close   bg_new_folder_gate_close
     0000000D  ___bank_bg_new_folder_greathall    bg_new_folder_greathall
     0000000D  ___bank_bg_new_folder_inner_east   bg_new_folder_inner_east_ga
     0000000D  ___bank_bg_new_folder_inner_east   bg_new_folder_inner_east_ga_
     0000000D  ___bank_bg_new_folder_kitchen_to   bg_new_folder_kitchen_tower
     0000000D  ___bank_bg_new_folder_kitchen_to   bg_new_folder_kitchen_tower_
     0000000D  ___bank_bg_new_folder_nw_tower1    bg_new_folder_nw_tower1
     0000000D  ___bank_bg_new_folder_nw_tower2    bg_new_folder_nw_tower2
     0000000D  ___bank_bg_new_folder_se1          bg_new_folder_se1
     0000000D  ___bank_bg_new_folder_se2          bg_new_folder_se2
     0000000D  ___bank_bg_new_folder_south_dam1   bg_new_folder_south_dam1
     0000000D  ___bank_bg_new_folder_south_dam2   bg_new_folder_south_dam2
     0000000D  ___bank_bg_new_folder_southwest1   bg_new_folder_southwest1
ASxxxx Linker V03.00/V05.40 + sdld,  page 14.
Hexadecimal  [32-Bits]

Area                                    Addr        Size        Decimal Bytes (Attributes)
--------------------------------        ----        ----        ------- ----- ------------
.  .ABS.                            00000000    00000000 =           0. bytes (ABS,CON)

      Value  Global                              Global Defined In Module
      -----  --------------------------------   ------------------------
     0000000D  ___bank_bg_new_folder_southwest2   bg_new_folder_southwest2
     0000000D  ___bank_bg_new_folder_top_down_c   bg_new_folder_top_down_c_1_
     0000000D  ___bank_bg_new_folder_top_down_c   bg_new_folder_top_down_c_1__
     0000000D  ___bank_bg_new_folder_top_down_c   bg_new_folder_top_down_c_2
     0000000D  ___bank_bg_new_folder_top_down_c   bg_new_folder_top_down_c_2_t
     0000000D  ___bank_bg_new_folder_top_down_i   bg_new_folder_top_down_inne
     0000000D  ___bank_bg_new_folder_top_down_k   bg_new_folder_top_down_kitc
     0000000D  ___bank_bg_new_folder_top_down_k   bg_new_folder_top_down_kitc_
     0000000D  ___bank_bg_new_folder_top_down_t   bg_new_folder_top_down_towe
     0000000D  ___bank_bg_new_folder_top_down_t   bg_new_folder_top_down_towe_
     0000000D  ___bank_bg_new_folder_top_down_t   bg_new_folder_top_down_towe_
     0000000D  ___bank_bg_new_folder_top_down_t   bg_new_folder_top_down_towe_
     0000000D  ___bank_bg_new_folder_top_down_t   bg_new_folder_top_down_towe_
     0000000D  ___bank_bg_new_folder_top_down_t   bg_new_folder_top_down_towe_
     0000000D  ___bank_bg_new_folder_top_down_t   bg_new_folder_top_down_towe_
     0000000D  ___bank_bg_stars                   bg_stars
     0000000D  ___bank_bootstrap_script           
     0000000D  ___bank_cursor_image               cursor_image
     0000000D  ___bank_scene_10_triggers          scene_10_triggers
     0000000D  ___bank_scene_12_sprites           scene_12_sprites
     0000000D  ___bank_scene_12_triggers          scene_12_triggers
     0000000D  ___bank_scene_13_init              scene_13_init
     0000000D  ___bank_scene_13_triggers          scene_13_triggers
     0000000D  ___bank_scene_14_init              scene_14_init
     0000000D  ___bank_scene_14_triggers          scene_14_triggers
     0000000D  ___bank_scene_15_init              scene_15_init
     0000000D  ___bank_scene_15_triggers          scene_15_triggers
     0000000D  ___bank_scene_16_init              scene_16_init
     0000000D  ___bank_scene_16_triggers          scene_16_triggers
     0000000D  ___bank_scene_17_init              scene_17_init
     0000000D  ___bank_scene_17_triggers          scene_17_triggers
     0000000D  ___bank_scene_18_init              scene_18_init
     0000000D  ___bank_scene_18_triggers          scene_18_triggers
     0000000D  ___bank_scene_19_triggers          scene_19_triggers
     0000000D  ___bank_scene_20_sprites           scene_20_sprites
     0000000D  ___bank_scene_21_sprites           scene_21_sprites
     0000000D  ___bank_scene_22_init              scene_22_init
     0000000D  ___bank_scene_22_triggers          scene_22_triggers
     0000000D  ___bank_scene_23_init              scene_23_init
     0000000D  ___bank_scene_23_triggers          scene_23_triggers
     0000000D  ___bank_scene_24_sprites           scene_24_sprites
     0000000D  ___bank_scene_25_init              scene_25_init
     0000000D  ___bank_scene_25_sprites           scene_25_sprites
     0000000D  ___bank_scene_25_triggers          scene_25_triggers
     0000000D  ___bank_scene_26_init              scene_26_init
     0000000D  ___bank_scene_26_sprites           scene_26_sprites
     0000000D  ___bank_scene_26_triggers          scene_26_triggers
     0000000D  ___bank_scene_27_init              scene_27_init
     0000000D  ___bank_scene_27_sprites           scene_27_sprites
     0000000D  ___bank_scene_27_triggers          scene_27_triggers
     0000000D  ___bank_scene_29_sprites           scene_29_sprites
ASxxxx Linker V03.00/V05.40 + sdld,  page 15.
Hexadecimal  [32-Bits]

Area                                    Addr        Size        Decimal Bytes (Attributes)
--------------------------------        ----        ----        ------- ----- ------------
.  .ABS.                            00000000    00000000 =           0. bytes (ABS,CON)

      Value  Global                              Global Defined In Module
      -----  --------------------------------   ------------------------
     0000000D  ___bank_scene_29_triggers          scene_29_triggers
     0000000D  ___bank_scene_2_init               scene_2_init
     0000000D  ___bank_scene_4_init               scene_4_init
     0000000D  ___bank_scene_4_triggers           scene_4_triggers
     0000000D  ___bank_scene_5_init               scene_5_init
     0000000D  ___bank_scene_5_triggers           scene_5_triggers
     0000000D  ___bank_scene_6_init               scene_6_init
     0000000D  ___bank_scene_6_triggers           scene_6_triggers
     0000000D  ___bank_scene_8_triggers           scene_8_triggers
     0000000D  ___bank_scene_9_init               scene_9_init
     0000000D  ___bank_scene_9_triggers           scene_9_triggers
     0000000D  ___bank_script_1                   script_1
     0000000D  ___bank_script_2                   script_2
     0000000D  ___bank_script_5                   script_5
     0000000D  ___bank_script_6                   script_6
     0000000D  ___bank_script_8                   script_8
     0000000D  ___bank_script_input_0             script_input_0
     0000000D  ___bank_script_input_1             script_input_1
     0000000D  ___bank_script_input_2             script_input_2
     0000000D  ___bank_sound_legacy_0             sound_legacy_0
     0000000D  ___bank_sound_legacy_1             sound_legacy_1
     0000000D  ___bank_sprite_static_cats_cat_w   sprite_static_cats_cat_whit
     0000000D  ___bank_spritesheet_none           spritesheet_none
     0000000D  ___bank_trigger_0_interact         trigger_0_interact
     0000000D  ___bank_trigger_104_interact       trigger_104_interact
     0000000D  ___bank_trigger_105_interact       trigger_105_interact
     0000000D  ___bank_trigger_106_interact       trigger_106_interact
     0000000D  ___bank_trigger_108_interact       trigger_108_interact
     0000000D  ___bank_trigger_10_interact        trigger_10_interact
     0000000D  ___bank_trigger_110_interact       trigger_110_interact
     0000000D  ___bank_trigger_11_interact        trigger_11_interact
     0000000D  ___bank_trigger_121_interact       trigger_121_interact
     0000000D  ___bank_trigger_12_interact        trigger_12_interact
     0000000D  ___bank_trigger_15_interact        trigger_15_interact
     0000000D  ___bank_trigger_17_interact        trigger_17_interact
     0000000D  ___bank_trigger_19_interact        trigger_19_interact
     0000000D  ___bank_trigger_1_interact         trigger_1_interact
     0000000D  ___bank_trigger_20_interact        trigger_20_interact
     0000000D  ___bank_trigger_21_interact        trigger_21_interact
     0000000D  ___bank_trigger_22_interact        trigger_22_interact
     0000000D  ___bank_trigger_23_interact        trigger_23_interact
     0000000D  ___bank_trigger_24_interact        trigger_24_interact
     0000000D  ___bank_trigger_25_interact        trigger_25_interact
     0000000D  ___bank_trigger_26_interact        trigger_26_interact
     0000000D  ___bank_trigger_27_interact        trigger_27_interact
     0000000D  ___bank_trigger_28_interact        trigger_28_interact
     0000000D  ___bank_trigger_2_interact         trigger_2_interact
     0000000D  ___bank_trigger_30_interact        trigger_30_interact
     0000000D  ___bank_trigger_31_interact        trigger_31_interact
     0000000D  ___bank_trigger_32_interact        trigger_32_interact
     0000000D  ___bank_trigger_34_interact        trigger_34_interact
ASxxxx Linker V03.00/V05.40 + sdld,  page 16.
Hexadecimal  [32-Bits]

Area                                    Addr        Size        Decimal Bytes (Attributes)
--------------------------------        ----        ----        ------- ----- ------------
.  .ABS.                            00000000    00000000 =           0. bytes (ABS,CON)

      Value  Global                              Global Defined In Module
      -----  --------------------------------   ------------------------
     0000000D  ___bank_trigger_36_interact        trigger_36_interact
     0000000D  ___bank_trigger_37_interact        trigger_37_interact
     0000000D  ___bank_trigger_38_interact        trigger_38_interact
     0000000D  ___bank_trigger_39_interact        trigger_39_interact
     0000000D  ___bank_trigger_3_interact         trigger_3_interact
     0000000D  ___bank_trigger_40_interact        trigger_40_interact
     0000000D  ___bank_trigger_41_interact        trigger_41_interact
     0000000D  ___bank_trigger_42_interact        trigger_42_interact
     0000000D  ___bank_trigger_45_interact        trigger_45_interact
     0000000D  ___bank_trigger_46_interact        trigger_46_interact
     0000000D  ___bank_trigger_47_interact        trigger_47_interact
     0000000D  ___bank_trigger_48_interact        trigger_48_interact
     0000000D  ___bank_trigger_49_interact        trigger_49_interact
     0000000D  ___bank_trigger_50_interact        trigger_50_interact
     0000000D  ___bank_trigger_51_interact        trigger_51_interact
     0000000D  ___bank_trigger_53_interact        trigger_53_interact
     0000000D  ___bank_trigger_54_interact        trigger_54_interact
     0000000D  ___bank_trigger_55_interact        trigger_55_interact
     0000000D  ___bank_trigger_56_interact        trigger_56_interact
     0000000D  ___bank_trigger_57_interact        trigger_57_interact
     0000000D  ___bank_trigger_58_interact        trigger_58_interact
     0000000D  ___bank_trigger_59_interact        trigger_59_interact
     0000000D  ___bank_trigger_78_interact        trigger_78_interact
     0000000D  ___bank_trigger_7_interact         trigger_7_interact
     0000000D  ___bank_trigger_81_interact        trigger_81_interact
     0000000D  ___bank_trigger_98_interact        trigger_98_interact
     0000000D  b_SIO_init                         sio
     0000000D  b_camera_init                      camera
     0000000D  b_input_init                       input
     0000000D  b_logo_init                        logo
     0000000D  b_logo_update                      logo
     0000000D  b_parallax_init                    parallax
     0000000D  b_remove_LCD_ISRs                  interrupts
     0000001A  l__INITIALIZED                  
     0000001A  l__INITIALIZER                  
     00000027  l__GSINIT                       
     00000030  l__HEADER7                      
     00000060  l__HEADER4                      
     000000AB  l__HEADER11                     
     000001CB  l__CRASH_SCRATCH2               
     00000200  s__CODE                         
     00000ED1  l__CODE                         
     000010D1  s__HOME                         
     00001994  l__DATA                         
     00001A34  l__CODE_13                      
     00002000  _rROMB0                            
     00002D53  l__HOME                         
     00003000  _rROMB1                            
     00003E24  s__BASE                         
     00003E24  s__CODE_0                       
     00003E24  s__INITIALIZER                  
ASxxxx Linker V03.00/V05.40 + sdld,  page 17.
Hexadecimal  [32-Bits]

Area                                    Addr        Size        Decimal Bytes (Attributes)
--------------------------------        ----        ----        ------- ----- ------------
.  .ABS.                            00000000    00000000 =           0. bytes (ABS,CON)

      Value  Global                              Global Defined In Module
      -----  --------------------------------   ------------------------
     00003E24  s__LIT                          
     00003E3E  s__GSINIT                       
     00003E65  s__GSFINAL                      
     00003FFE  l__CODE_10                      
     00003FFE  l__CODE_7                       
     00003FFF  l__CODE_6                       
     00003FFF  l__CODE_8                       
     00003FFF  l__CODE_9                       
     00004000  _RTC_SELECT_REG                    vm_rtc
     00004000  _rRAMB                             
     00004000  l__CODE_1                       
     00004000  l__CODE_11                      
     00004000  l__CODE_12                      
     00004000  l__CODE_2                       
     00004000  l__CODE_3                       
     00004000  l__CODE_4                       
     00004000  l__CODE_5                       
     00006000  _RTC_LATCH_REG                     vm_rtc
     00008000  __VRAM                             
     00008000  __VRAM8000                         
     00008800  __VRAM8800                         
     00009000  __VRAM9000                         
     00009800  __SCRN0                            
     00009C00  __SCRN1                            
     0000A000  _RTC_VALUE_REG                     vm_rtc
     0000A000  __SRAM                             
     0000C000  __RAM                              
     0000C000  _shadow_OAM                     
     0000C0A0  s__DATA                         
     0000D000  __RAMBANK                          
     0000DA34  s__BSS                          
     0000DA34  s__INITIALIZED                  
     0000DA4E  s__HEAP                         
     0000DA4E  s__HEAP_END                     
     0000DF00  .STACK                          
     0000DF00  _shadow_OAM2                       absolute
     0000DFA0  _BkgPalette                        absolute
     0000DFE0  _vwf_tile_data                     absolute
     0000FE00  __OAMRAM                           
     0000FF00  _P1_REG                            
     0000FF00  __IO                               
     0000FF01  _SB_REG                            
     0000FF02  _SC_REG                            
     0000FF04  _DIV_REG                           
     0000FF05  _TIMA_REG                          
     0000FF06  _TMA_REG                           
     0000FF07  _TAC_REG                           
     0000FF0F  _IF_REG                            
     0000FF10  _NR10_REG                          
     0000FF11  _NR11_REG                          
     0000FF12  _NR12_REG                          
ASxxxx Linker V03.00/V05.40 + sdld,  page 18.
Hexadecimal  [32-Bits]

Area                                    Addr        Size        Decimal Bytes (Attributes)
--------------------------------        ----        ----        ------- ----- ------------
.  .ABS.                            00000000    00000000 =           0. bytes (ABS,CON)

      Value  Global                              Global Defined In Module
      -----  --------------------------------   ------------------------
     0000FF13  _NR13_REG                          
     0000FF14  _NR14_REG                          
     0000FF16  _NR21_REG                          
     0000FF17  _NR22_REG                          
     0000FF18  _NR23_REG                          
     0000FF19  _NR24_REG                          
     0000FF1A  _NR30_REG                          
     0000FF1B  _NR31_REG                          
     0000FF1C  _NR32_REG                          
     0000FF1D  _NR33_REG                          
     0000FF1E  _NR34_REG                          
     0000FF20  _NR41_REG                          
     0000FF21  _NR42_REG                          
     0000FF22  _NR43_REG                          
     0000FF23  _NR44_REG                          
     0000FF24  _NR50_REG                          
     0000FF25  _NR51_REG                          
     0000FF26  _NR52_REG                          
     0000FF30  _AUD3WAVE                          
     0000FF30  _PCM_SAMPLE                        
     0000FF30  __AUD3WAVERAM                      
     0000FF40  _LCDC_REG                          
     0000FF41  _STAT_REG                          
     0000FF42  _SCY_REG                           
     0000FF43  _SCX_REG                           
     0000FF44  _LY_REG                            
     0000FF45  _LYC_REG                           
     0000FF46  _DMA_REG                           
     0000FF47  _BGP_REG                           
     0000FF48  _OBP0_REG                          
     0000FF49  _OBP1_REG                          
     0000FF4A  _WY_REG                            
     0000FF4B  _WX_REG                            
     0000FF4D  _KEY1_REG                          
     0000FF4F  _VBK_REG                           
     0000FF51  _HDMA1_REG                         
     0000FF52  _HDMA2_REG                         
     0000FF53  _HDMA3_REG                         
     0000FF54  _HDMA4_REG                         
     0000FF55  _HDMA5_REG                         
     0000FF56  _RP_REG                            
     0000FF68  _BCPS_REG                          
     0000FF69  _BCPD_REG                          
     0000FF6A  _OCPS_REG                          
     0000FF6B  _OCPD_REG                          
     0000FF70  _SVBK_REG                          
     0000FF76  _PCM12_REG                         
     0000FF77  _PCM34_REG                         
     0000FF80  .refresh_OAM                    
     0000FF80  __HRAM                             
     0000FFFF  _IE_REG                            
ASxxxx Linker V03.00/V05.40 + sdld,  page 19.
Hexadecimal  [32-Bits]

Area                                    Addr        Size        Decimal Bytes (Attributes)
--------------------------------        ----        ----        ------- ----- ------------
.  .ABS.                            00000000    00000000 =           0. bytes (ABS,CON)

      Value  Global                              Global Defined In Module
      -----  --------------------------------   ------------------------
     00014000  s__CODE_1                       
     00024000  s__CODE_2                       
     00034000  s__CODE_3                       
     00044000  s__CODE_4                       
     00054000  s__CODE_5                       
     00064000  s__CODE_6                       
     00074000  s__CODE_7                       
     00084000  s__CODE_8                       
     00094000  s__CODE_9                       
     000A4000  s__CODE_10                      
     000B4000  s__CODE_11                      
     000C4000  s__CODE_12                      
     000D4000  s__CODE_13                      
ASxxxx Linker V03.00/V05.40 + sdld,  page 20.
Hexadecimal  [32-Bits]

Area                                    Addr        Size        Decimal Bytes (Attributes)
--------------------------------        ----        ----        ------- ----- ------------
_CODE                               00000200    00000ED1 =        3793. bytes (REL,CON)

      Value  Global                              Global Defined In Module
      -----  --------------------------------   ------------------------
     00000200  ___HandleCrash                     
     0000020A  _SIO_send_byte                     
     0000021D  _SIO_receive                       
     0000022E  _GetWinAddr                        
     00000236  _GetBkgAddr                        
     00000244  _state_init                        
     00000249  _state_update                      
     0000026B  _ui_time_masks                     
     00000273  _ui_print_shift_char               
     000002F6  _ui_draw_frame_row                 
     000002FF  .ui_draw_frame_row                 
     00000328  _script_cmds                       vm_instructions
     00000560  _save_signature                    game_signature
     00000564  _start_scene_x                     
     00000566  _start_scene_y                     
     00000568  _start_scene_dir                   
     00000569  _start_scene                       
     0000056C  _start_player_move_speed           
     0000056D  _start_player_anim_tick            
     0000056E  _ui_fonts                          
     00000571  _core_reset_hook                   main
     00000579  _main                              main
     00000581  _state_start_fns                   
     00000593  _state_update_fns                  
     000005A5  _hUGE_init                         hUGEDriver_obj
     000005A7  hUGE_init                          hUGEDriver_obj
     000005FD  _hUGE_mute_channel                 hUGEDriver_obj
     000005FF  hUGE_mute_channel                  hUGEDriver_obj
     0000084D  _hUGE_set_position                 hUGEDriver_obj
     0000084F  hUGE_set_position                  hUGEDriver_obj
     00000A14  _hUGE_dosound                      hUGEDriver_obj
     00000A14  hUGE_dosound                       hUGEDriver_obj
     00000D40  _get_vram_byte                     
     00000D48  _get_win_tile_xy                   
     00000D50  _get_bkg_tile_xy                   
     00000D77  _set_sprite_palette                CGB
     00000D7C  _set_bkg_palette                   CGB
     00000D7F  .set_palette                       CGB
     00000D9E  _set_sprite_palette_entry          CGB
     00000DA3  _set_bkg_palette_entry             CGB
     00000DA6  .set_palette_entry                 CGB
     00000DC2  _hide_sprites_range                Metasprites
     00000DF1  __mulsuchar                        mul
     00000DF4  __muluschar                        mul
     00000DFD  __mulschar                         mul
     00000E05  __mulint                           mul
     00000E24  __muluchar                         mul
     00000E36  _set_vram_byte                     
     00000E3F  _set_win_tile_xy                   
     00000E48  _set_bkg_tile_xy                   
ASxxxx Linker V03.00/V05.40 + sdld,  page 21.
Hexadecimal  [32-Bits]

Area                                    Addr        Size        Decimal Bytes (Attributes)
--------------------------------        ----        ----        ------- ----- ------------
_CODE                               00000200    00000ED1 =        3793. bytes (REL,CON)

      Value  Global                              Global Defined In Module
      -----  --------------------------------   ------------------------
     00000E77  .sgb_check                         
     00000E77  _sgb_check                         
     00000EBF  _sgb_transfer                      
     00000EC4  .sgb_transfer                      
     00000F05  .copy_vram                         
     00000F0B  _get_data                          
     00000F0B  _set_data                          
     00000F0B  _vmemcpy                           
     00000F59  ___move_metasprite                 Metasprites
     00000F96  ___memcpy                          
     00000F96  _memcpy                            
     00000FC8  _cpu_slow                          CGB
     00000FE3  _cpu_fast                          CGB
     00000FEA  __divsuchar                        divmod
     00000FF0  __modsuchar                        divmod
     00000FF9  __divuschar                        divmod
     00001002  __moduschar                        divmod
     0000100E  __divschar                         divmod
     00001013  __modschar                         divmod
     0000101A  __divsint                          divmod
     00001023  __modsint                          divmod
     0000102F  __divuchar                         divmod
     00001034  __moduchar                         divmod
     0000103B  __divuint                          divmod
     00001044  __moduint                          divmod
     00001050  .div8                              divmod
     00001050  .mod8                              divmod
     00001058  .div16                             divmod
     00001058  .mod16                             divmod
     0000108E  .divu8                             divmod
     0000108E  .modu8                             divmod
     00001091  .divu16                            divmod
     00001091  .modu16                            divmod

ASxxxx Linker V03.00/V05.40 + sdld,  page 22.
Hexadecimal  [32-Bits]

Area                                    Addr        Size        Decimal Bytes (Attributes)
--------------------------------        ----        ----        ------- ----- ------------
_HEADER0                            00000000    00000001 =           1. bytes (ABS,CON)

      Value  Global                              Global Defined In Module
      -----  --------------------------------   ------------------------
     00000020  .call_hl                           Runtime

ASxxxx Linker V03.00/V05.40 + sdld,  page 23.
Hexadecimal  [32-Bits]

Area                                    Addr        Size        Decimal Bytes (Attributes)
--------------------------------        ----        ----        ------- ----- ------------
_HEADER1                            00000000    00000005 =           5. bytes (ABS,CON)

      Value  Global                              Global Defined In Module
      -----  --------------------------------   ------------------------
     00000028  .MemsetSmall                       Runtime

ASxxxx Linker V03.00/V05.40 + sdld,  page 24.
Hexadecimal  [32-Bits]

Area                                    Addr        Size        Decimal Bytes (Attributes)
--------------------------------        ----        ----        ------- ----- ------------
_HEADER2                            00000000    00000007 =           7. bytes (ABS,CON)

      Value  Global                              Global Defined In Module
      -----  --------------------------------   ------------------------
     00000030  .MemcpySmall                       Runtime

ASxxxx Linker V03.00/V05.40 + sdld,  page 25.
Hexadecimal  [32-Bits]

Area                                    Addr        Size        Decimal Bytes (Attributes)
--------------------------------        ----        ----        ------- ----- ------------
_HEADER3                            00000000    00000008 =           8. bytes (ABS,CON)

      Value  Global                              Global Defined In Module
      -----  --------------------------------   ------------------------
ASxxxx Linker V03.00/V05.40 + sdld,  page 26.
Hexadecimal  [32-Bits]

Area                                    Addr        Size        Decimal Bytes (Attributes)
--------------------------------        ----        ----        ------- ----- ------------
_HEADER4                            00000000    00000060 =          96. bytes (ABS,CON)

      Value  Global                              Global Defined In Module
      -----  --------------------------------   ------------------------
     00000080  .int                               Runtime
     0000008F  _wait_int_handler                  Runtime
     0000009C  __standard_VBL_handler             Runtime
     000000AB  _refresh_OAM                       Runtime
     000000CC  _set_interrupts                    Runtime

ASxxxx Linker V03.00/V05.40 + sdld,  page 27.
Hexadecimal  [32-Bits]

Area                                    Addr        Size        Decimal Bytes (Attributes)
--------------------------------        ----        ----        ------- ----- ------------
_HEADER5                            00000000    00000001 =           1. bytes (ABS,CON)

      Value  Global                              Global Defined In Module
      -----  --------------------------------   ------------------------
ASxxxx Linker V03.00/V05.40 + sdld,  page 28.
Hexadecimal  [32-Bits]

Area                                    Addr        Size        Decimal Bytes (Attributes)
--------------------------------        ----        ----        ------- ----- ------------
_HEADER6                            00000000    00000002 =           2. bytes (ABS,CON)

      Value  Global                              Global Defined In Module
      -----  --------------------------------   ------------------------
ASxxxx Linker V03.00/V05.40 + sdld,  page 29.
Hexadecimal  [32-Bits]

Area                                    Addr        Size        Decimal Bytes (Attributes)
--------------------------------        ----        ----        ------- ----- ------------
_HEADER7                            00000000    00000030 =          48. bytes (ABS,CON)

      Value  Global                              Global Defined In Module
      -----  --------------------------------   ------------------------
ASxxxx Linker V03.00/V05.40 + sdld,  page 30.
Hexadecimal  [32-Bits]

Area                                    Addr        Size        Decimal Bytes (Attributes)
--------------------------------        ----        ----        ------- ----- ------------
_HEADER8                            00000000    00000006 =           6. bytes (ABS,CON)

      Value  Global                              Global Defined In Module
      -----  --------------------------------   ------------------------
ASxxxx Linker V03.00/V05.40 + sdld,  page 31.
Hexadecimal  [32-Bits]

Area                                    Addr        Size        Decimal Bytes (Attributes)
--------------------------------        ----        ----        ------- ----- ------------
_HEADER9                            00000000    00000003 =           3. bytes (ABS,CON)

      Value  Global                              Global Defined In Module
      -----  --------------------------------   ------------------------
ASxxxx Linker V03.00/V05.40 + sdld,  page 32.
Hexadecimal  [32-Bits]

Area                                    Addr        Size        Decimal Bytes (Attributes)
--------------------------------        ----        ----        ------- ----- ------------
_HEADERa                            00000000    00000001 =           1. bytes (ABS,CON)

      Value  Global                              Global Defined In Module
      -----  --------------------------------   ------------------------
ASxxxx Linker V03.00/V05.40 + sdld,  page 33.
Hexadecimal  [32-Bits]

Area                                    Addr        Size        Decimal Bytes (Attributes)
--------------------------------        ----        ----        ------- ----- ------------
_HEADERb                            00000000    00000001 =           1. bytes (ABS,CON)

      Value  Global                              Global Defined In Module
      -----  --------------------------------   ------------------------
ASxxxx Linker V03.00/V05.40 + sdld,  page 34.
Hexadecimal  [32-Bits]

Area                                    Addr        Size        Decimal Bytes (Attributes)
--------------------------------        ----        ----        ------- ----- ------------
_HEADERc                            00000000    00000001 =           1. bytes (ABS,CON)

      Value  Global                              Global Defined In Module
      -----  --------------------------------   ------------------------
ASxxxx Linker V03.00/V05.40 + sdld,  page 35.
Hexadecimal  [32-Bits]

Area                                    Addr        Size        Decimal Bytes (Attributes)
--------------------------------        ----        ----        ------- ----- ------------
_HEADERd                            00000000    00000002 =           2. bytes (ABS,CON)

      Value  Global                              Global Defined In Module
      -----  --------------------------------   ------------------------
ASxxxx Linker V03.00/V05.40 + sdld,  page 36.
Hexadecimal  [32-Bits]

Area                                    Addr        Size        Decimal Bytes (Attributes)
--------------------------------        ----        ----        ------- ----- ------------
_HEADERe                            00000000    00000001 =           1. bytes (ABS,CON)

      Value  Global                              Global Defined In Module
      -----  --------------------------------   ------------------------
ASxxxx Linker V03.00/V05.40 + sdld,  page 37.
Hexadecimal  [32-Bits]

Area                                    Addr        Size        Decimal Bytes (Attributes)
--------------------------------        ----        ----        ------- ----- ------------
_HEADERf                            00000000    00000001 =           1. bytes (ABS,CON)

      Value  Global                              Global Defined In Module
      -----  --------------------------------   ------------------------
ASxxxx Linker V03.00/V05.40 + sdld,  page 38.
Hexadecimal  [32-Bits]

Area                                    Addr        Size        Decimal Bytes (Attributes)
--------------------------------        ----        ----        ------- ----- ------------
_HEADER10                           00000000    00000002 =           2. bytes (ABS,CON)

      Value  Global                              Global Defined In Module
      -----  --------------------------------   ------------------------
ASxxxx Linker V03.00/V05.40 + sdld,  page 39.
Hexadecimal  [32-Bits]

Area                                    Addr        Size        Decimal Bytes (Attributes)
--------------------------------        ----        ----        ------- ----- ------------
_HEADER11                           00000000    000000AB =         171. bytes (ABS,CON)

      Value  Global                              Global Defined In Module
      -----  --------------------------------   ------------------------
     00000150  .reset                             Runtime
     00000150  _reset                             Runtime
     00000157  .code_start                        Runtime
     000001B9  _exit                              Runtime
     000001BD  .wait_vbl_done                     Runtime
     000001BD  _vsync                             Runtime
     000001BD  _wait_vbl_done                     Runtime
     000001CD  .remove_VBL                        Runtime
     000001CD  _remove_VBL                        Runtime
     000001D0  .remove_int                        Runtime
     000001ED  .add_VBL                           Runtime
     000001ED  _add_VBL                           Runtime
     000001F0  .add_int                           Runtime

ASxxxx Linker V03.00/V05.40 + sdld,  page 40.
Hexadecimal  [32-Bits]

Area                                    Addr        Size        Decimal Bytes (Attributes)
--------------------------------        ----        ----        ------- ----- ------------
_HOME                               000010D1    00002D53 =       11603. bytes (REL,CON)

      Value  Global                              Global Defined In Module
      -----  --------------------------------   ------------------------
     000010D1  .memset_simple                     Runtime
     000010DA  .memcpy_simple                     Runtime
     000010F7  .display_off                       Runtime
     000010F7  _display_off                       Runtime
     0000110F  _actors_update                     actor
     00001577  _SetBankedBkgData                  bankdata
     00001593  _SetBankedSpriteData               bankdata
     000015AF  _SetBankedBkgTiles                 bankdata
     000015CB  _SetBankedWinTiles                 bankdata
     000015E7  _ReadBankedFarPtr                  bankdata
     00001609  _ReadBankedUWORD                   bankdata
     00001623  _MemcpyBanked                      bankdata
     00001645  _MemcpyVRAMBanked                  bankdata
     00001674  _IndexOfFarPtr                     bankdata
     000016F9  _camera_update                     camera
     0000182C  _load_animations                   data_manager
     00001885  _events_update                     events
     00001958  _timers_update                     events
     000019E1  _input_update                      input
     00001A04  .sio_ISR                           
     00001A5E  .timer_ISR                         
     00001A73  _simple_LCD_isr                    interrupts
     00001AF2  _fullscreen_LCD_isr                interrupts
     00001B1E  _VBL_isr                           interrupts
     00001B68  _isqrt                             math
     00001BC5  _sine_wave                         math
     00001CC5  _dir_lookup                        math
     00001CCD  _dir_angle_lookup                  math
     00001CD1  _hUGETrackerRoutine                music_manager
     00001CF8  _music_events_update               music_manager
     00001D7A  _music_play_isr                    music_manager
     00001E1B  _parallax_LCD_isr                  parallax
     00001E58  _projectiles_update                projectiles
     000022D9  _projectiles_render                projectiles
     0000242E  _scroll_load_pending_row           scroll
     000024B4  _scroll_load_row                   scroll
     00002529  _scroll_load_col                   scroll
     00002592  _scroll_load_pending_col           scroll
     0000261A  _set_bkg_submap                    
     0000265D  _set_xy_win_submap                 
     0000268A  .set_xy_win_submap                 
     00002693  .set_xy_bkg_submap                 
     000026A2  .set_xy_submap                     
     000026EC  _sfx_play_isr                      sfx_player
     000027C5  _on_SIO_receive                    sio
     00002806  _SIO_update                        sio
     0000286D  _ui_update                         ui
     000029A5  _vm_sgb_transfer                   vm_sgb
     000029F2  _vm_load_text                      vm_ui
     00002C48  _vm_switch                         vm
ASxxxx Linker V03.00/V05.40 + sdld,  page 41.
Hexadecimal  [32-Bits]

Area                                    Addr        Size        Decimal Bytes (Attributes)
--------------------------------        ----        ----        ------- ----- ------------
_HOME                               000010D1    00002D53 =       11603. bytes (REL,CON)

      Value  Global                              Global Defined In Module
      -----  --------------------------------   ------------------------
     00002D79  _vm_beginthread                    vm
     00002E9D  _vm_rpn                            vm
     000038B5  _vm_get_far                        vm
     00003923  _vm_call_native                    vm
     00003936  _VM_STEP                           vm
     000039A0  _script_runner_update              vm
     00003B05  _fill_win_rect                     
     00003B17  _rand                              
     00003B17  _randw                             
     00003B42  _initrand                          
     00003B44  .initrand                          
     00003B4D  _get_bkg_data                      
     00003B4D  _get_win_data                      
     00003B9A  _get_sprite_data                   
     00003BCD  _abs                               abs
     00003BDA  _set_win_tiles                     
     00003BEE  _set_tile_data                     
     00003BF3  _set_bkg_data                      
     00003BF3  _set_win_data                      
     00003BFB  _set_sprite_data                   
     00003C2B  _reverse                           reverse
     00003C5F  ___call__banked                    far_ptr
     00003C7C  _to_far_ptr                        far_ptr
     00003CB2  .add_LCD                           
     00003CB2  _add_LCD                           
     00003CB8  .remove_LCD                        
     00003CB8  _remove_LCD                        
     00003CBE  .fill_rect_wtt                     
     00003CC7  .fill_rect_btt                     
     00003D14  _fill_bkg_rect                     
     00003D26  .padup                             
     00003D26  _waitpadup                         
     00003D36  .jpad                              
     00003D36  _joypad                            
     00003D5E  _waitpad                           
     00003D5F  .wait_pad                          
     00003D66  ___sdcc_call_hl                    call_hl
     00003D67  _memset                            memset
     00003D9A  .set_xy_wtt                        SetTileMap
     00003DA3  .set_xy_btt                        SetTileMap
     00003DB2  .set_xy_tt                         SetTileMap
     00003DF6  ___sdcc_bcall_ehl                  
     00003E10  _set_bkg_tiles                     
ASxxxx Linker V03.00/V05.40 + sdld,  page 42.
Hexadecimal  [32-Bits]

Area                                    Addr        Size        Decimal Bytes (Attributes)
--------------------------------        ----        ----        ------- ----- ------------
_INITIALIZER                        00003E24    0000001A =          26. bytes (REL,CON)

      Value  Global                              Global Defined In Module
      -----  --------------------------------   ------------------------
ASxxxx Linker V03.00/V05.40 + sdld,  page 43.
Hexadecimal  [32-Bits]

Area                                    Addr        Size        Decimal Bytes (Attributes)
--------------------------------        ----        ----        ------- ----- ------------
_GSINIT                             00003E3E    00000027 =          39. bytes (REL,CON)

      Value  Global                              Global Defined In Module
      -----  --------------------------------   ------------------------
     00003E3E  gsinit                             Runtime

ASxxxx Linker V03.00/V05.40 + sdld,  page 44.
Hexadecimal  [32-Bits]

Area                                    Addr        Size        Decimal Bytes (Attributes)
--------------------------------        ----        ----        ------- ----- ------------
_GSFINAL                            00003E65    00000001 =           1. bytes (REL,CON)

      Value  Global                              Global Defined In Module
      -----  --------------------------------   ------------------------
ASxxxx Linker V03.00/V05.40 + sdld,  page 45.
Hexadecimal  [32-Bits]

Area                                    Addr        Size        Decimal Bytes (Attributes)
--------------------------------        ----        ----        ------- ----- ------------
_DATA                               0000C0A0    00001994 =        6548. bytes (REL,CON)

      Value  Global                              Global Defined In Module
      -----  --------------------------------   ------------------------
     0000C0A0  __cpu                              Runtime
     0000C0A1  __is_GBA                           Runtime
     0000C0A2  .mode                              Runtime
     0000C0A3  .sys_time                          Runtime
     0000C0A3  _sys_time                          Runtime
     0000C0A5  .int_0x40                          Runtime
     0000C0B1  _actors                            actor
     0000C4F5  _actors_active_head                actor
     0000C4F7  _actors_active_tail                actor
     0000C4F9  _actors_inactive_head              actor
     0000C4FB  _screen_x                          actor
     0000C4FC  _screen_y                          actor
     0000C4FD  _invalid                           actor
     0000C4FF  _player_moving                     actor
     0000C500  _player_iframes                    actor
     0000C501  _player_collision_actor            actor
     0000C503  _emote_actor                       actor
     0000C505  _emote_timer                       actor
     0000C506  _allocated_sprite_tiles            actor
     0000C507  _allocated_hardware_sprites        actor
     0000C514  _camera_x                          camera
     0000C516  _camera_y                          camera
     0000C518  _camera_offset_x                   camera
     0000C519  _camera_offset_y                   camera
     0000C51A  _camera_deadzone_x                 camera
     0000C51B  _camera_deadzone_y                 camera
     0000C51C  _camera_settings                   camera
     0000C520  _current_scene                     data_manager
     0000C523  _image_bank                        data_manager
     0000C524  _image_ptr                         data_manager
     0000C526  _image_attr_bank                   data_manager
     0000C527  _image_attr_ptr                    data_manager
     0000C529  _collision_bank                    data_manager
     0000C52A  _collision_ptr                     data_manager
     0000C52C  _image_tile_width                  data_manager
     0000C52D  _image_tile_height                 data_manager
     0000C52E  _image_width                       data_manager
     0000C530  _image_height                      data_manager
     0000C532  _sprites_len                       data_manager
     0000C533  _actors_len                        data_manager
     0000C534  _projectiles_len                   data_manager
     0000C535  _player_sprite_len                 data_manager
     0000C536  _scene_type                        data_manager
     0000C537  _scene_LCD_type                    data_manager
     0000C538  _scene_stack                       data_manager
     0000C578  _scene_stack_ptr                   data_manager
     0000C57A  _scene_sprites_base_tiles          data_manager
     0000C5BA  _input_events                      events
     0000C5E2  _input_slots                       events
     0000C5EA  _timer_events                      events
ASxxxx Linker V03.00/V05.40 + sdld,  page 46.
Hexadecimal  [32-Bits]

Area                                    Addr        Size        Decimal Bytes (Attributes)
--------------------------------        ----        ----        ------- ----- ------------
_DATA                               0000C0A0    00001994 =        6548. bytes (REL,CON)

      Value  Global                              Global Defined In Module
      -----  --------------------------------   ------------------------
     0000C5FE  _timer_values                      events
     0000C606  _fade_running                      fade_manager
     0000C607  _fade_frames_per_step              fade_manager
     0000C608  _fade_timer                        fade_manager
     0000C610  _joypads                           input
     0000C615  _frame_joy                         input
     0000C616  _last_joy                          input
     0000C617  _recent_joy                        input
     0000C618  _SIO_status                        
     0000C619  _link_byte_sent                    
     0000C61A  _link_next_mode                    
     0000C61B  _save_blob_size                    load_save
     0000C61D  _routine_queue                     music_manager
     0000C621  _routine_queue_head                music_manager
     0000C622  _routine_queue_tail                music_manager
     0000C623  _music_events                      music_manager
     0000C637  _music_current_track_bank          music_manager
     0000C638  _music_mute_mask                   music_manager
     0000C639  _music_effective_mute              music_manager
     0000C63A  _music_next_track                  music_manager
     0000C63C  _music_current_track               music_manager
     0000C63E  _music_play_isr_counter            music_manager
     0000C63F  _music_play_isr_pause              music_manager
     0000C640  _music_global_mute_mask            music_manager
     0000C641  _music_sfx_priority                music_manager
     0000C642  _DMG_palette                       palette
     0000C645  _SprPalette                        palette
     0000C685  _parallax_rows                     parallax
     0000C697  _parallax_row                      parallax
     0000C699  _projectiles                       projectiles
     0000C752  _projectile_defs                   projectiles
     0000C7C5  _projectiles_active_head           projectiles
     0000C7C7  _projectiles_inactive_head         projectiles
     0000C7CE  _scroll_x                          scroll
     0000C7D0  _scroll_y                          scroll
     0000C7D2  _draw_scroll_x                     scroll
     0000C7D4  _draw_scroll_y                     scroll
     0000C7D6  _scroll_x_max                      scroll
     0000C7D8  _scroll_y_max                      scroll
     0000C7DA  _scroll_offset_x                   scroll
     0000C7DB  _scroll_offset_y                   scroll
     0000C7DC  _pending_h_x                       scroll
     0000C7DD  _pending_h_y                       scroll
     0000C7DE  _pending_h_i                       scroll
     0000C7DF  _pending_w_x                       scroll
     0000C7E0  _pending_w_y                       scroll
     0000C7E1  _pending_w_i                       scroll
     0000C7E2  _current_row                       scroll
     0000C7E4  _new_row                           scroll
     0000C7E6  _current_col                       scroll
     0000C7E8  _new_col                           scroll
ASxxxx Linker V03.00/V05.40 + sdld,  page 47.
Hexadecimal  [32-Bits]

Area                                    Addr        Size        Decimal Bytes (Attributes)
--------------------------------        ----        ----        ------- ----- ------------
_DATA                               0000C0A0    00001994 =        6548. bytes (REL,CON)

      Value  Global                              Global Defined In Module
      -----  --------------------------------   ------------------------
     0000C7EA  .image_tile_width                  
     0000C7EB  _sfx_play_bank                     sfx_player
     0000C7EC  _sfx_play_sample                   sfx_player
     0000C7EE  _sfx_frame_skip                    sfx_player
     0000C7EF  _link_operation_mode               sio
     0000C7F0  _link_packet                       sio
     0000C810  _link_packet_len                   sio
     0000C811  _link_packet_ptr                   sio
     0000C813  _link_packet_received              sio
     0000C814  _link_packet_snd_len               sio
     0000C815  _link_packet_snd_ptr               sio
     0000C817  _link_packet_sent                  sio
     0000C818  __is_CGB                           system
     0000C819  __is_SGB                           system
     0000C81A  __current_ram_bank                 system
     0000C81B  _triggers                          trigger
     0000C913  _last_trigger_tx                   trigger
     0000C914  _last_trigger_ty                   trigger
     0000C915  _last_trigger                      trigger
     0000C916  _win_pos_x                         ui
     0000C917  _win_dest_pos_x                    ui
     0000C918  _win_pos_y                         ui
     0000C919  _win_dest_pos_y                    ui
     0000C91A  _win_speed                         ui
     0000C91B  _text_drawn                        ui
     0000C91C  _current_text_speed                ui
     0000C91D  _text_wait                         ui
     0000C91E  _text_options                      ui
     0000C91F  _text_in_speed                     ui
     0000C920  _text_out_speed                    ui
     0000C921  _text_draw_speed                   ui
     0000C922  _text_ff_joypad                    ui
     0000C923  _text_ff                           ui
     0000C924  _text_bkg_fill                     ui
     0000C925  _ui_text_data                      ui
     0000CA2F  _vwf_current_mask                  ui
     0000CA30  _vwf_current_rotate                ui
     0000CA31  _vwf_inverse_map                   ui
     0000CA32  _vwf_direction                     ui
     0000CA33  _vwf_current_font_desc             ui
     0000CA3B  _vwf_current_font_bank             ui
     0000CA3C  _vwf_current_font_idx              ui
     0000CA3D  _text_render_base_addr             ui
     0000CA3F  _text_scroll_addr                  ui
     0000CA41  _text_scroll_width                 ui
     0000CA42  _text_scroll_height                ui
     0000CA43  _text_scroll_fill                  ui
     0000CA44  _text_sound_mask                   ui
     0000CA45  _text_sound_bank                   ui
     0000CA46  _text_sound_data                   ui
     0000CA48  _overlay_priority                  ui
ASxxxx Linker V03.00/V05.40 + sdld,  page 48.
Hexadecimal  [32-Bits]

Area                                    Addr        Size        Decimal Bytes (Attributes)
--------------------------------        ----        ----        ------- ----- ------------
_DATA                               0000C0A0    00001994 =        6548. bytes (REL,CON)

      Value  Global                              Global Defined In Module
      -----  --------------------------------   ------------------------
     0000CA49  _text_palette                      ui
     0000CA50  __itoa_fmt_len                     vm_ui_a
     0000CA51  .itoa_fmt_buf                      vm_ui_a
     0000CA54  _CTXS                              vm
     0000CB84  _first_ctx                         vm
     0000CB86  _free_ctxs                         vm
     0000CB88  _old_executing_ctx                 vm
     0000CB8A  _executing_ctx                     vm
     0000CB8C  _vm_lock_state                     vm
     0000CB8D  _vm_loaded_state                   vm
     0000CB8E  _vm_exception_code                 vm
     0000CB8F  _vm_exception_params_length        vm
     0000CB90  _vm_exception_params_bank          vm
     0000CB91  _vm_exception_params_offset        vm
     0000CB95  _script_memory                     vm
     0000D99B  _grounded                          platform
     0000D99C  _on_slope                          platform
     0000D99D  _slope_y                           platform
     0000D99E  _on_ladder                         platform
     0000D99F  _pl_vel_x                          platform
     0000D9A1  _pl_vel_y                          platform
     0000D9A3  _plat_min_vel                      platform
     0000D9A5  _plat_walk_vel                     platform
     0000D9A7  _plat_climb_vel                    platform
     0000D9A9  _plat_run_vel                      platform
     0000D9AB  _plat_walk_acc                     platform
     0000D9AD  _plat_run_acc                      platform
     0000D9AF  _plat_dec                          platform
     0000D9B1  _plat_jump_vel                     platform
     0000D9B3  _plat_grav                         platform
     0000D9B5  _plat_hold_grav                    platform
     0000D9B7  _plat_max_fall_vel                 platform
     0000D9B9  _shooter_reached_end               shmup
     0000D9BA  _shooter_dest                      shmup
     0000D9BC  _shooter_direction                 shmup
     0000D9BD  _topdown_grid                      topdown
     0000D9BE  ___rand_seed                       
     0000D9DC  _hUGE_current_wave                 hUGEDriver_obj
     0000D9DC  hUGE_current_wave                  hUGEDriver_obj
     0000D9DD  _hUGE_mute_mask                    hUGEDriver_obj
     0000DA24  ___call_banked_addr                far_ptr
     0000DA24  ___call_banked_ptr                 far_ptr
     0000DA26  ___call_banked_bank                far_ptr
     0000DA28  .int_0x48                          
     0000DA30  ___current_metasprite              Metasprites
     0000DA32  ___current_base_tile               Metasprites
     0000DA33  ___current_base_prop               Metasprites

ASxxxx Linker V03.00/V05.40 + sdld,  page 49.
Hexadecimal  [32-Bits]

Area                                    Addr        Size        Decimal Bytes (Attributes)
--------------------------------        ----        ----        ------- ----- ------------
_INITIALIZED                        0000DA34    0000001A =          26. bytes (REL,CON)

      Value  Global                              Global Defined In Module
      -----  --------------------------------   ------------------------
     0000DA34  _fade_style                        fade_manager
     0000DA35  _game_time                         game_time
     0000DA36  _PRN_PKT_START                     gbprinter
     0000DA44  _hide_sprites                      interrupts
     0000DA45  _show_actors_on_overlay            interrupts
     0000DA46  _overlay_cut_scanline              interrupts
     0000DA47  __submap_tile_offset               
     0000DA48  _triggers_len                      trigger
     0000DA49  _exchange_state                    vm_sio
     0000DA4A  _last_hit_trigger                  pointnclick
     0000DA4B  _shooter_scroll_speed              shmup
     0000DA4C  ___render_shadow_OAM               Metasprites
     0000DA4D  __map_tile_offset                  SetTileMap

ASxxxx Linker V03.00/V05.40 + sdld,  page 50.
Hexadecimal  [32-Bits]

Area                                    Addr        Size        Decimal Bytes (Attributes)
--------------------------------        ----        ----        ------- ----- ------------
_HRAM12                             00000000    00000003 =           3. bytes (ABS,CON)

      Value  Global                              Global Defined In Module
      -----  --------------------------------   ------------------------
     0000FF90  __current_bank                     Runtime
     0000FF92  __shadow_OAM_base                  Runtime

ASxxxx Linker V03.00/V05.40 + sdld,  page 51.
Hexadecimal  [32-Bits]

Area                                    Addr        Size        Decimal Bytes (Attributes)
--------------------------------        ----        ----        ------- ----- ------------
_CODE_2                             00024000    00004000 =       16384. bytes (REL,CON)

      Value  Global                              Global Defined In Module
      -----  --------------------------------   ------------------------
     00024000  ___func_ACTOR                      actor
     00024000  _actors_init                       actor
     0002403A  _emote_offsets                     actor
     00024049  _emote_metasprite                  actor
     00024055  _player_init                       actor
     0002406A  _deactivate_actor                  actor
     000241CB  _activate_actor                    actor
     0002430A  _activate_actors_in_row            actor
     00024401  _activate_actors_in_col            actor
     00024552  _actor_set_frames                  actor
     000245A8  _actor_set_frame_offset            actor
     000245E3  _actor_get_frame_offset            actor
     000245F5  _actor_set_anim_idle               actor
     00024623  _actor_set_anim_moving             actor
     00024654  _actor_set_dir                     actor
     000246B9  _actor_at_tile                     actor
     0002478D  _actor_in_front_of_player          actor
     00024841  _actor_overlapping_player          actor
     00024ADA  _actor_overlapping_bb              actor
     00024CF9  _actors_handle_player_collision    actor
     00024D85  _check_collision_in_direction      actor
     000255A3  ___func_VM_ACTOR                   vm_actor
     000255A3  _vm_actor_move_to                  vm_actor
     00025F3F  _vm_actor_move_cancel              vm_actor
     00025F75  _vm_actor_activate                 vm_actor
     00025FC6  _vm_actor_deactivate               vm_actor
     00026017  _vm_actor_begin_update             vm_actor
     0002609E  _vm_actor_terminate_update         vm_actor
     000260E5  _vm_actor_set_dir                  vm_actor
     0002612E  _vm_actor_set_anim                 vm_actor
     000261BC  _vm_actor_set_pos                  vm_actor
     00026236  _vm_actor_get_pos                  vm_actor
     000262A5  _vm_actor_get_dir                  vm_actor
     0002631F  _vm_actor_get_angle                vm_actor
     000263A0  _vm_actor_emote                    vm_actor
     00026464  _vm_actor_set_bounds               vm_actor
     000264C2  _vm_actor_set_spritesheet          vm_actor
     0002658C  _vm_actor_replace_tile             vm_actor
     000265F7  _vm_actor_set_anim_tick            vm_actor
     00026635  _vm_actor_set_move_speed           vm_actor
     00026673  _vm_actor_set_anim_frame           vm_actor
     000266B7  _vm_actor_get_anim_frame           vm_actor
     00026701  _vm_actor_set_anim_set             vm_actor
     00026789  _vm_actor_set_spritesheet_by_ref   vm_actor
     00026896  _vm_actor_set_flags                vm_actor
     00026944  ___func_bg_logos_and_endings_end   bg_logos_and_endings_ending_
     00026944  _bg_logos_and_endings_ending_til   bg_logos_and_endings_ending_
     00027016  ___func_bg_logos_and_endings_end   bg_logos_and_endings_ending
     00027016  _bg_logos_and_endings_ending       bg_logos_and_endings_ending
     00027FEB  _song_song_3_Data                  song_song_3_Data

ASxxxx Linker V03.00/V05.40 + sdld,  page 52.
Hexadecimal  [32-Bits]

Area                                    Addr        Size        Decimal Bytes (Attributes)
--------------------------------        ----        ----        ------- ----- ------------
_CODE_13                            000D4000    00001A34 =        6708. bytes (REL,CON)

      Value  Global                              Global Defined In Module
      -----  --------------------------------   ------------------------
     000D4000  _bootstrap_script                  
     000D400B  _camera_init                       camera
     000D4031  _input_init                        input
     000D4057  _remove_LCD_ISRs                   interrupts
     000D4072  _parallax_init                     parallax
     000D4092  _SIO_init                          sio
     000D40BB  _actor_12_interact                 actor_12_interact
     000D40BC  GBVM$actor_12_interact$2087ce21_   actor_12_interact
     000D40E9  _actor_13_interact                 actor_13_interact
     000D40EA  GBVM$actor_13_interact$aafda62c_   actor_13_interact
     000D4117  _actor_14_interact                 actor_14_interact
     000D4118  GBVM$actor_14_interact$4e220094_   actor_14_interact
     000D414A  _actor_15_interact                 actor_15_interact
     000D414B  GBVM$actor_15_interact$e5510401_   actor_15_interact
     000D417D  _actor_16_interact                 actor_16_interact
     000D417E  GBVM$actor_16_interact$21d497d8_   actor_16_interact
     000D41AE  _actor_17_interact                 actor_17_interact
     000D41AF  GBVM$actor_17_interact$8dbff13b_   actor_17_interact
     000D41DF  _actor_18_interact                 actor_18_interact
     000D41E0  GBVM$actor_18_interact$d674c03b_   actor_18_interact
     000D4207  _actor_19_interact                 actor_19_interact
     000D4208  GBVM$actor_19_interact$ab96e4a9_   actor_19_interact
     000D422F  _actor_20_interact                 actor_20_interact
     000D4230  GBVM$actor_20_interact$8b54964d_   actor_20_interact
     000D4254  _actor_21_interact                 actor_21_interact
     000D4255  GBVM$actor_21_interact$d3a27d0a_   actor_21_interact
     000D4279  _actor_22_interact                 actor_22_interact
     000D427A  GBVM$actor_22_interact$d0c801ce_   actor_22_interact
     000D42A0  _actor_23_interact                 actor_23_interact
     000D42A1  GBVM$actor_23_interact$255c5619_   actor_23_interact
     000D42D3  _actor_24_interact                 actor_24_interact
     000D42D4  GBVM$actor_24_interact$fba5fee3_   actor_24_interact
     000D4300  _actor_25_interact                 actor_25_interact
     000D4301  GBVM$actor_25_interact$a03e1db0_   actor_25_interact
     000D432D  _actor_26_interact                 actor_26_interact
     000D432E  GBVM$actor_26_interact$915be538_   actor_26_interact
     000D4360  _actor_27_interact                 actor_27_interact
     000D4361  GBVM$actor_27_interact$97ebaed3_   actor_27_interact
     000D4393  _actor_28_interact                 actor_28_interact
     000D4394  GBVM$actor_28_interact$157ad269_   actor_28_interact
     000D43C0  _actor_29_interact                 actor_29_interact
     000D43C1  GBVM$actor_29_interact$32c1a5c7_   actor_29_interact
     000D43ED  _actor_30_interact                 actor_30_interact
     000D43EE  GBVM$actor_30_interact$a008f202_   actor_30_interact
     000D441A  _actor_31_interact                 actor_31_interact
     000D441B  GBVM$actor_31_interact$2959464d_   actor_31_interact
     000D4447  _actor_32_interact                 actor_32_interact
     000D4448  GBVM$actor_32_interact$daf7f051_   actor_32_interact
     000D4474  _actor_34_interact                 actor_34_interact
     000D4475  GBVM$actor_34_interact$ae912f8c_   actor_34_interact
ASxxxx Linker V03.00/V05.40 + sdld,  page 53.
Hexadecimal  [32-Bits]

Area                                    Addr        Size        Decimal Bytes (Attributes)
--------------------------------        ----        ----        ------- ----- ------------
_CODE_13                            000D4000    00001A34 =        6708. bytes (REL,CON)

      Value  Global                              Global Defined In Module
      -----  --------------------------------   ------------------------
     000D44A1  _actor_35_interact                 actor_35_interact
     000D44A2  GBVM$actor_35_interact$35027068_   actor_35_interact
     000D44CE  _actor_36_interact                 actor_36_interact
     000D44CF  GBVM$actor_36_interact$041607ec_   actor_36_interact
     000D44FB  _actor_37_interact                 actor_37_interact
     000D44FC  GBVM$actor_37_interact$f64851db_   actor_37_interact
     000D4528  _actor_38_interact                 actor_38_interact
     000D4529  GBVM$actor_38_interact$3412986e_   actor_38_interact
     000D4555  _actor_39_interact                 actor_39_interact
     000D4556  GBVM$actor_39_interact$32575613_   actor_39_interact
     000D4582  _actor_40_interact                 actor_40_interact
     000D4583  GBVM$actor_40_interact$5b3c9314_   actor_40_interact
     000D45AF  _actor_41_interact                 actor_41_interact
     000D45B0  GBVM$actor_41_interact$cc8a60a4_   actor_41_interact
     000D45DC  _actor_42_interact                 actor_42_interact
     000D45DD  GBVM$actor_42_interact$19b7bb49_   actor_42_interact
     000D460A  _actor_43_interact                 actor_43_interact
     000D460B  GBVM$actor_43_interact$7e1b6458_   actor_43_interact
     000D4638  _actor_44_interact                 actor_44_interact
     000D4639  GBVM$actor_44_interact$b10cf81c_   actor_44_interact
     000D465C  _actor_45_interact                 actor_45_interact
     000D465D  GBVM$actor_45_interact$bae1f572_   actor_45_interact
     000D468A  _actor_8_interact                  actor_8_interact
     000D468B  GBVM$actor_8_interact$81d44f1c_9   actor_8_interact
     000D46BD  ___func_bg_new_folder_gate_close   bg_new_folder_gate_close
     000D46BD  _bg_new_folder_gate_close          bg_new_folder_gate_close
     000D46CB  ___func_bg_new_folder_gate         bg_new_folder_gate
     000D46CB  _bg_new_folder_gate                bg_new_folder_gate
     000D46D9  ___func_bg_new_folder_greathall    bg_new_folder_greathall
     000D46D9  _bg_new_folder_greathall           bg_new_folder_greathall
     000D46E7  ___func_bg_new_folder_inner_east   bg_new_folder_inner_east_ga_
     000D46E7  _bg_new_folder_inner_east_ga_0     bg_new_folder_inner_east_ga_
     000D46F5  ___func_bg_new_folder_inner_east   bg_new_folder_inner_east_ga
     000D46F5  _bg_new_folder_inner_east_ga       bg_new_folder_inner_east_ga
     000D4703  ___func_bg_new_folder_kitchen_to   bg_new_folder_kitchen_tower_
     000D4703  _bg_new_folder_kitchen_tower_0     bg_new_folder_kitchen_tower_
     000D4711  ___func_bg_new_folder_kitchen_to   bg_new_folder_kitchen_tower
     000D4711  _bg_new_folder_kitchen_tower       bg_new_folder_kitchen_tower
     000D471F  ___func_bg_new_folder_nw_tower1    bg_new_folder_nw_tower1
     000D471F  _bg_new_folder_nw_tower1           bg_new_folder_nw_tower1
     000D472D  ___func_bg_new_folder_nw_tower2    bg_new_folder_nw_tower2
     000D472D  _bg_new_folder_nw_tower2           bg_new_folder_nw_tower2
     000D473B  ___func_bg_new_folder_se1          bg_new_folder_se1
     000D473B  _bg_new_folder_se1                 bg_new_folder_se1
     000D4749  ___func_bg_new_folder_se2          bg_new_folder_se2
     000D4749  _bg_new_folder_se2                 bg_new_folder_se2
     000D4757  ___func_bg_new_folder_south_dam1   bg_new_folder_south_dam1
     000D4757  _bg_new_folder_south_dam1          bg_new_folder_south_dam1
     000D4765  ___func_bg_new_folder_south_dam2   bg_new_folder_south_dam2
     000D4765  _bg_new_folder_south_dam2          bg_new_folder_south_dam2
     000D4773  ___func_bg_new_folder_southwest1   bg_new_folder_southwest1
ASxxxx Linker V03.00/V05.40 + sdld,  page 54.
Hexadecimal  [32-Bits]

Area                                    Addr        Size        Decimal Bytes (Attributes)
--------------------------------        ----        ----        ------- ----- ------------
_CODE_13                            000D4000    00001A34 =        6708. bytes (REL,CON)

      Value  Global                              Global Defined In Module
      -----  --------------------------------   ------------------------
     000D4773  _bg_new_folder_southwest1          bg_new_folder_southwest1
     000D4781  ___func_bg_new_folder_southwest2   bg_new_folder_southwest2
     000D4781  _bg_new_folder_southwest2          bg_new_folder_southwest2
     000D478F  ___func_bg_new_folder_top_down_c   bg_new_folder_top_down_c_1__
     000D478F  _bg_new_folder_top_down_c_1__til   bg_new_folder_top_down_c_1__
     000D479D  ___func_bg_new_folder_top_down_c   bg_new_folder_top_down_c_1_
     000D479D  _bg_new_folder_top_down_c_1_       bg_new_folder_top_down_c_1_
     000D47AB  ___func_bg_new_folder_top_down_c   bg_new_folder_top_down_c_2_t
     000D47AB  _bg_new_folder_top_down_c_2_tile   bg_new_folder_top_down_c_2_t
     000D47B9  ___func_bg_new_folder_top_down_c   bg_new_folder_top_down_c_2
     000D47B9  _bg_new_folder_top_down_c_2        bg_new_folder_top_down_c_2
     000D47C7  ___func_bg_new_folder_top_down_i   bg_new_folder_top_down_inne
     000D47C7  _bg_new_folder_top_down_inne       bg_new_folder_top_down_inne
     000D47D5  ___func_bg_new_folder_top_down_k   bg_new_folder_top_down_kitc_
     000D47D5  _bg_new_folder_top_down_kitc_til   bg_new_folder_top_down_kitc_
     000D47E3  ___func_bg_new_folder_top_down_k   bg_new_folder_top_down_kitc
     000D47E3  _bg_new_folder_top_down_kitc       bg_new_folder_top_down_kitc
     000D47F1  ___func_bg_new_folder_top_down_t   bg_new_folder_top_down_towe_
     000D47F1  _bg_new_folder_top_down_towe_0_t   bg_new_folder_top_down_towe_
     000D47FF  ___func_bg_new_folder_top_down_t   bg_new_folder_top_down_towe_
     000D47FF  _bg_new_folder_top_down_towe_0     bg_new_folder_top_down_towe_
     000D480D  ___func_bg_new_folder_top_down_t   bg_new_folder_top_down_towe_
     000D480D  _bg_new_folder_top_down_towe_1_t   bg_new_folder_top_down_towe_
     000D481B  ___func_bg_new_folder_top_down_t   bg_new_folder_top_down_towe_
     000D481B  _bg_new_folder_top_down_towe_1     bg_new_folder_top_down_towe_
     000D4829  ___func_bg_new_folder_top_down_t   bg_new_folder_top_down_towe_
     000D4829  _bg_new_folder_top_down_towe_2     bg_new_folder_top_down_towe_
     000D4837  ___func_bg_new_folder_top_down_t   bg_new_folder_top_down_towe_
     000D4837  _bg_new_folder_top_down_towe_til   bg_new_folder_top_down_towe_
     000D4845  ___func_bg_new_folder_top_down_t   bg_new_folder_top_down_towe
     000D4845  _bg_new_folder_top_down_towe       bg_new_folder_top_down_towe
     000D4853  ___func_bg_stars                   bg_stars
     000D4853  _bg_stars                          bg_stars
     000D4861  ___func_cursor_image               cursor_image
     000D4861  _cursor_image                      cursor_image
     000D4871  ___func_scene_10_triggers          scene_10_triggers
     000D4871  _scene_10_triggers                 scene_10_triggers
     000D4891  ___func_scene_12_sprites           scene_12_sprites
     000D4891  _scene_12_sprites                  scene_12_sprites
     000D4897  ___func_scene_12_triggers          scene_12_triggers
     000D4897  _scene_12_triggers                 scene_12_triggers
     000D48B7  _scene_13_init                     scene_13_init
     000D48BA  GBVM$scene_13_init$705140ec_7c21   scene_13_init
     000D48CB  GBVM$scene_13_init$786cfff2_0617   scene_13_init
     000D48CF  GBVM$scene_13_init$autofade$0e2b   scene_13_init
     000D48E5  GBVM$scene_13_init$3dc1d3b2_1c2a   scene_13_init
     000D48EA  ___func_scene_13_triggers          scene_13_triggers
     000D48EA  _scene_13_triggers                 scene_13_triggers
     000D490A  _scene_14_init                     scene_14_init
     000D490D  GBVM$scene_14_init$41a60bfc_22c0   scene_14_init
     000D491E  GBVM$scene_14_init$autofade$4746   scene_14_init
ASxxxx Linker V03.00/V05.40 + sdld,  page 55.
Hexadecimal  [32-Bits]

Area                                    Addr        Size        Decimal Bytes (Attributes)
--------------------------------        ----        ----        ------- ----- ------------
_CODE_13                            000D4000    00001A34 =        6708. bytes (REL,CON)

      Value  Global                              Global Defined In Module
      -----  --------------------------------   ------------------------
     000D4934  GBVM$scene_14_init$b672f01e_42c2   scene_14_init
     000D4939  ___func_scene_14_triggers          scene_14_triggers
     000D4939  _scene_14_triggers                 scene_14_triggers
     000D4951  _scene_15_init                     scene_15_init
     000D4954  GBVM$scene_15_init$e650c0ab_52d8   scene_15_init
     000D4965  GBVM$scene_15_init$f50e5586_ae81   scene_15_init
     000D4969  GBVM$scene_15_init$autofade$80bf   scene_15_init
     000D497F  GBVM$scene_15_init$1e03f3ed_363d   scene_15_init
     000D4984  ___func_scene_15_triggers          scene_15_triggers
     000D4984  _scene_15_triggers                 scene_15_triggers
     000D49A4  _scene_16_init                     scene_16_init
     000D49A7  GBVM$scene_16_init$e0ba140c_ba7c   scene_16_init
     000D49B8  GBVM$scene_16_init$b3d30e2e_8dd5   scene_16_init
     000D49BC  GBVM$scene_16_init$autofade$1237   scene_16_init
     000D49D2  GBVM$scene_16_init$89e213c8_f80d   scene_16_init
     000D49D7  ___func_scene_16_triggers          scene_16_triggers
     000D49D7  _scene_16_triggers                 scene_16_triggers
     000D49EF  _scene_17_init                     scene_17_init
     000D49F2  GBVM$scene_17_init$22a2c44c_4f6e   scene_17_init
     000D4A03  GBVM$scene_17_init$5f5bbbd2_9eaa   scene_17_init
     000D4A07  GBVM$scene_17_init$autofade$c081   scene_17_init
     000D4A1D  GBVM$scene_17_init$d5ea41ea_c54a   scene_17_init
     000D4A22  ___func_scene_17_triggers          scene_17_triggers
     000D4A22  _scene_17_triggers                 scene_17_triggers
     000D4A4A  _scene_18_init                     scene_18_init
     000D4A4D  GBVM$scene_18_init$4980bb28_3b89   scene_18_init
     000D4A51  GBVM$scene_18_init$autofade$58c2   scene_18_init
     000D4A67  GBVM$scene_18_init$26f9e38b_1cc8   scene_18_init
     000D4A6C  ___func_scene_18_triggers          scene_18_triggers
     000D4A6C  _scene_18_triggers                 scene_18_triggers
     000D4A94  ___func_scene_19_triggers          scene_19_triggers
     000D4A94  _scene_19_triggers                 scene_19_triggers
     000D4AC4  _scene_2_init                      scene_2_init
     000D4AC7  GBVM$scene_2_init$184f3da3_1b24_   scene_2_init
     000D4ACF  GBVM$scene_2_init$7dc73954_1161_   scene_2_init
     000D4ACF  GBVM$scene_2_init$autofade$e2fb5   scene_2_init
     000D4ACF  GBVM_END$scene_2_init$184f3da3_1   scene_2_init
     000D4AE6  ___func_scene_20_sprites           scene_20_sprites
     000D4AE6  _scene_20_sprites                  scene_20_sprites
     000D4AEC  ___func_scene_21_sprites           scene_21_sprites
     000D4AEC  _scene_21_sprites                  scene_21_sprites
     000D4AF2  _scene_22_init                     scene_22_init
     000D4AF5  GBVM$scene_22_init$0e863f13_b059   scene_22_init
     000D4AFC  GBVM$scene_22_init$897a6956_0dfe   scene_22_init
     000D4B03  GBVM$scene_22_init$b12b7e2a_f017   scene_22_init
     000D4B07  GBVM$scene_22_init$autofade$4658   scene_22_init
     000D4B1E  ___func_scene_22_triggers          scene_22_triggers
     000D4B1E  _scene_22_triggers                 scene_22_triggers
     000D4B3E  _scene_23_init                     scene_23_init
     000D4B41  GBVM$scene_23_init$adec860f_9587   scene_23_init
     000D4B48  GBVM$scene_23_init$9c81904e_f219   scene_23_init
ASxxxx Linker V03.00/V05.40 + sdld,  page 56.
Hexadecimal  [32-Bits]

Area                                    Addr        Size        Decimal Bytes (Attributes)
--------------------------------        ----        ----        ------- ----- ------------
_CODE_13                            000D4000    00001A34 =        6708. bytes (REL,CON)

      Value  Global                              Global Defined In Module
      -----  --------------------------------   ------------------------
     000D4B4F  GBVM$scene_23_init$cdfe65aa_14b9   scene_23_init
     000D4B53  GBVM$scene_23_init$autofade$edcc   scene_23_init
     000D4B6A  ___func_scene_23_triggers          scene_23_triggers
     000D4B6A  _scene_23_triggers                 scene_23_triggers
     000D4B7A  ___func_scene_24_sprites           scene_24_sprites
     000D4B7A  _scene_24_sprites                  scene_24_sprites
     000D4B80  _scene_25_init                     scene_25_init
     000D4B83  GBVM$scene_25_init$6a69f2fa_7962   scene_25_init
     000D4B8A  GBVM$scene_25_init$82b20e96_5267   scene_25_init
     000D4B91  GBVM$scene_25_init$e2b37ca2_6797   scene_25_init
     000D4B95  GBVM$scene_25_init$autofade$efab   scene_25_init
     000D4BAC  ___func_scene_25_sprites           scene_25_sprites
     000D4BAC  _scene_25_sprites                  scene_25_sprites
     000D4BAF  ___func_scene_25_triggers          scene_25_triggers
     000D4BAF  _scene_25_triggers                 scene_25_triggers
     000D4BBF  _scene_26_init                     scene_26_init
     000D4BC2  GBVM$scene_26_init$217a33f9_c512   scene_26_init
     000D4BC9  GBVM$scene_26_init$45ea1254_08a7   scene_26_init
     000D4BD0  GBVM$scene_26_init$d38eda33_b64e   scene_26_init
     000D4BD4  GBVM$scene_26_init$autofade$11cb   scene_26_init
     000D4BEB  ___func_scene_26_sprites           scene_26_sprites
     000D4BEB  _scene_26_sprites                  scene_26_sprites
     000D4BEE  ___func_scene_26_triggers          scene_26_triggers
     000D4BEE  _scene_26_triggers                 scene_26_triggers
     000D4C0E  _scene_27_init                     scene_27_init
     000D4C11  GBVM$scene_27_init$5c75af0e_daa4   scene_27_init
     000D4C18  GBVM$scene_27_init$00933b72_47d9   scene_27_init
     000D4C1F  GBVM$scene_27_init$c37cfd94_736c   scene_27_init
     000D4C23  GBVM$scene_27_init$autofade$4942   scene_27_init
     000D4C3A  ___func_scene_27_sprites           scene_27_sprites
     000D4C3A  _scene_27_sprites                  scene_27_sprites
     000D4C3D  ___func_scene_27_triggers          scene_27_triggers
     000D4C3D  _scene_27_triggers                 scene_27_triggers
     000D4C5D  ___func_scene_29_sprites           scene_29_sprites
     000D4C5D  _scene_29_sprites                  scene_29_sprites
     000D4C69  ___func_scene_29_triggers          scene_29_triggers
     000D4C69  _scene_29_triggers                 scene_29_triggers
     000D4C89  _scene_4_init                      scene_4_init
     000D4C8C  GBVM$scene_4_init$f0e14566_f3f0_   scene_4_init
     000D4C9D  GBVM$scene_4_init$autofade$27d9a   scene_4_init
     000D4CB3  GBVM$scene_4_init$8eb03bab_2898_   scene_4_init
     000D4CB8  ___func_scene_4_triggers           scene_4_triggers
     000D4CB8  _scene_4_triggers                  scene_4_triggers
     000D4CD8  _scene_5_init                      scene_5_init
     000D4CDB  GBVM$scene_5_init$6bc879d5_cbd5_   scene_5_init
     000D4CEC  GBVM$scene_5_init$2cafcd3c_cf1c_   scene_5_init
     000D4CF0  GBVM$scene_5_init$autofade$19f64   scene_5_init
     000D4D06  GBVM$scene_5_init$308f078b_673b_   scene_5_init
     000D4D0B  ___func_scene_5_triggers           scene_5_triggers
     000D4D0B  _scene_5_triggers                  scene_5_triggers
     000D4D3B  _scene_6_init                      scene_6_init
ASxxxx Linker V03.00/V05.40 + sdld,  page 57.
Hexadecimal  [32-Bits]

Area                                    Addr        Size        Decimal Bytes (Attributes)
--------------------------------        ----        ----        ------- ----- ------------
_CODE_13                            000D4000    00001A34 =        6708. bytes (REL,CON)

      Value  Global                              Global Defined In Module
      -----  --------------------------------   ------------------------
     000D4D3E  GBVM$scene_6_init$75e57079_56d6_   scene_6_init
     000D4D4F  GBVM$scene_6_init$629eea8f_e649_   scene_6_init
     000D4D53  GBVM$scene_6_init$autofade$c4af8   scene_6_init
     000D4D69  GBVM$scene_6_init$8bf61dc8_4c78_   scene_6_init
     000D4D6E  ___func_scene_6_triggers           scene_6_triggers
     000D4D6E  _scene_6_triggers                  scene_6_triggers
     000D4D8E  ___func_scene_8_triggers           scene_8_triggers
     000D4D8E  _scene_8_triggers                  scene_8_triggers
     000D4DAE  _scene_9_init                      scene_9_init
     000D4DB1  GBVM$scene_9_init$42094e55_71ad_   scene_9_init
     000D4DC2  GBVM$scene_9_init$aca56f2f_7bd8_   scene_9_init
     000D4DC6  GBVM$scene_9_init$autofade$4b550   scene_9_init
     000D4DDC  GBVM$scene_9_init$123a9062_cdcc_   scene_9_init
     000D4DE1  ___func_scene_9_triggers           scene_9_triggers
     000D4DE1  _scene_9_triggers                  scene_9_triggers
     000D4E09  GBVM$script_1$b8da9f68_079f_47d0   script_1
     000D4E09  _script_1                          script_1
     000D4E11  GBVM$script_1$5b9464a7_b1da_431f   script_1
     000D4E11  GBVM_END$script_1$b8da9f68_079f_   script_1
     000D4E19  GBVM$script_1$1876b8f0_43af_4fe7   script_1
     000D4E19  GBVM_END$script_1$5b9464a7_b1da_   script_1
     000D4E1F  _script_2                          script_2
     000D4E21  GBVM$script_2$aba969ea_49a9_4e59   script_2
     000D4E47  _script_5                          script_5
     000D4E49  GBVM$script_5$d6c22ade_8463_481a   script_5
     000D4E57  _script_6                          script_6
     000D4E59  GBVM$script_6$f3052cf7_bf7a_4493   script_6
     000D4E69  GBVM$script_6$fceb1583_f22f_4446   script_6
     000D4E6A  GBVM_END$script_6$f3052cf7_bf7a_   script_6
     000D4E6E  GBVM$script_8$08a40087_d4a2_477b   script_8
     000D4E6E  _script_8                          script_8
     000D4E73  GBVM$script_8$079966a0_d8f1_4de3   script_8
     000D4E7A  GBVM$script_input_0$990b1b7c_0f5   script_input_0
     000D4E7A  _script_input_0                    script_input_0
     000D4E8F  _script_input_1                    script_input_1
     000D4E91  GBVM$script_input_1$b9beec53_ec9   script_input_1
     000D4E92  GBVM$script_input_1$6175a11a_29b   script_input_1
     000D4EC5  _script_input_2                    script_input_2
     000D4EC7  GBVM$script_input_2$812603ae_090   script_input_2
     000D4EC8  GBVM$script_input_2$35fa32d8_67a   script_input_2
     000D4EFB  ___func_sound_legacy_0             sound_legacy_0
     000D4EFB  _sound_legacy_0                    sound_legacy_0
     000D4F0E  ___func_sound_legacy_1             sound_legacy_1
     000D4F0E  _sound_legacy_1                    sound_legacy_1
     000D4F1C  ___func_sprite_static_cats_cat_w   sprite_static_cats_cat_whit
     000D4F1C  _sprite_static_cats_cat_whit_met   sprite_static_cats_cat_whit
     000D4F28  _sprite_static_cats_cat_whit_met   sprite_static_cats_cat_whit
     000D4F2A  _sprite_static_cats_cat_whit_ani   sprite_static_cats_cat_whit
     000D4F3A  _sprite_static_cats_cat_whit_ani   sprite_static_cats_cat_whit
     000D4F3C  _sprite_static_cats_cat_whit       sprite_static_cats_cat_whit
     000D4F4F  _spritesheet_none_metasprite       spritesheet_none
ASxxxx Linker V03.00/V05.40 + sdld,  page 58.
Hexadecimal  [32-Bits]

Area                                    Addr        Size        Decimal Bytes (Attributes)
--------------------------------        ----        ----        ------- ----- ------------
_CODE_13                            000D4000    00001A34 =        6708. bytes (REL,CON)

      Value  Global                              Global Defined In Module
      -----  --------------------------------   ------------------------
     000D4F53  _spritesheet_none_metasprites      spritesheet_none
     000D4F55  _spritesheet_none                  spritesheet_none
     000D4F68  _trigger_0_interact                trigger_0_interact
     000D4F6B  GBVM$trigger_0_interact$3fb39c81   trigger_0_interact
     000D4F9E  _trigger_1_interact                trigger_1_interact
     000D4FA1  GBVM$trigger_1_interact$c6590b56   trigger_1_interact
     000D4FD4  _trigger_10_interact               trigger_10_interact
     000D4FD7  GBVM$trigger_10_interact$ae8e789   trigger_10_interact
     000D500A  _trigger_104_interact              trigger_104_interact
     000D500B  GBVM$trigger_104_interact$cf746d   trigger_104_interact
     000D5037  _trigger_105_interact              trigger_105_interact
     000D5038  GBVM$trigger_105_interact$6bbfda   trigger_105_interact
     000D5064  _trigger_106_interact              trigger_106_interact
     000D5065  GBVM$trigger_106_interact$08225a   trigger_106_interact
     000D5092  _trigger_108_interact              trigger_108_interact
     000D5093  GBVM$trigger_108_interact$86fcde   trigger_108_interact
     000D50C3  _trigger_11_interact               trigger_11_interact
     000D50C6  GBVM$trigger_11_interact$f0651ac   trigger_11_interact
     000D50F9  _trigger_110_interact              trigger_110_interact
     000D50FA  GBVM$trigger_110_interact$598a2c   trigger_110_interact
     000D512A  _trigger_12_interact               trigger_12_interact
     000D512D  GBVM$trigger_12_interact$15ceef8   trigger_12_interact
     000D5160  _trigger_121_interact              trigger_121_interact
     000D5161  GBVM$trigger_121_interact$b4542f   trigger_121_interact
     000D5191  _trigger_15_interact               trigger_15_interact
     000D5194  GBVM$trigger_15_interact$a82417b   trigger_15_interact
     000D51C7  _trigger_17_interact               trigger_17_interact
     000D51CA  GBVM$trigger_17_interact$4555efe   trigger_17_interact
     000D51FD  _trigger_19_interact               trigger_19_interact
     000D5200  GBVM$trigger_19_interact$0a4aaa7   trigger_19_interact
     000D5229  _trigger_2_interact                trigger_2_interact
     000D522C  GBVM$trigger_2_interact$e6a90d45   trigger_2_interact
     000D525F  _trigger_20_interact               trigger_20_interact
     000D5262  GBVM$trigger_20_interact$4a323fb   trigger_20_interact
     000D5295  _trigger_21_interact               trigger_21_interact
     000D5298  GBVM$trigger_21_interact$b8be1d8   trigger_21_interact
     000D52CB  _trigger_22_interact               trigger_22_interact
     000D52CE  GBVM$trigger_22_interact$0f3edf1   trigger_22_interact
     000D5301  _trigger_23_interact               trigger_23_interact
     000D5304  GBVM$trigger_23_interact$ccfe45b   trigger_23_interact
     000D5337  _trigger_24_interact               trigger_24_interact
     000D533A  GBVM$trigger_24_interact$1d9a491   trigger_24_interact
     000D5363  _trigger_25_interact               trigger_25_interact
     000D5366  GBVM$trigger_25_interact$e76ab1a   trigger_25_interact
     000D538F  _trigger_26_interact               trigger_26_interact
     000D5392  GBVM$trigger_26_interact$bef770b   trigger_26_interact
     000D53BB  _trigger_27_interact               trigger_27_interact
     000D53BE  GBVM$trigger_27_interact$5d5970c   trigger_27_interact
     000D53E7  _trigger_28_interact               trigger_28_interact
     000D53EA  GBVM$trigger_28_interact$8937159   trigger_28_interact
     000D5413  _trigger_3_interact                trigger_3_interact
ASxxxx Linker V03.00/V05.40 + sdld,  page 59.
Hexadecimal  [32-Bits]

Area                                    Addr        Size        Decimal Bytes (Attributes)
--------------------------------        ----        ----        ------- ----- ------------
_CODE_13                            000D4000    00001A34 =        6708. bytes (REL,CON)

      Value  Global                              Global Defined In Module
      -----  --------------------------------   ------------------------
     000D5416  GBVM$trigger_3_interact$3b7ea9ef   trigger_3_interact
     000D5449  _trigger_30_interact               trigger_30_interact
     000D544C  GBVM$trigger_30_interact$840651c   trigger_30_interact
     000D547F  _trigger_31_interact               trigger_31_interact
     000D5482  GBVM$trigger_31_interact$eef09db   trigger_31_interact
     000D54B5  _trigger_32_interact               trigger_32_interact
     000D54B8  GBVM$trigger_32_interact$0518040   trigger_32_interact
     000D54EB  _trigger_34_interact               trigger_34_interact
     000D54EE  GBVM$trigger_34_interact$a0a49bb   trigger_34_interact
     000D5517  _trigger_36_interact               trigger_36_interact
     000D551A  GBVM$trigger_36_interact$1b1248c   trigger_36_interact
     000D554D  _trigger_37_interact               trigger_37_interact
     000D5550  GBVM$trigger_37_interact$83e67e2   trigger_37_interact
     000D5583  _trigger_38_interact               trigger_38_interact
     000D5586  GBVM$trigger_38_interact$f82da4c   trigger_38_interact
     000D55B9  _trigger_39_interact               trigger_39_interact
     000D55BC  GBVM$trigger_39_interact$3e3171c   trigger_39_interact
     000D55EF  _trigger_40_interact               trigger_40_interact
     000D55F2  GBVM$trigger_40_interact$24f1cb7   trigger_40_interact
     000D5625  _trigger_41_interact               trigger_41_interact
     000D5628  GBVM$trigger_41_interact$a84990e   trigger_41_interact
     000D565B  _trigger_42_interact               trigger_42_interact
     000D565E  GBVM$trigger_42_interact$a52126f   trigger_42_interact
     000D5691  _trigger_45_interact               trigger_45_interact
     000D5694  GBVM$trigger_45_interact$53fe3db   trigger_45_interact
     000D56C7  _trigger_46_interact               trigger_46_interact
     000D56CA  GBVM$trigger_46_interact$87bf3eb   trigger_46_interact
     000D56FD  _trigger_47_interact               trigger_47_interact
     000D5700  GBVM$trigger_47_interact$493bdd4   trigger_47_interact
     000D5733  _trigger_48_interact               trigger_48_interact
     000D5736  GBVM$trigger_48_interact$d0294d6   trigger_48_interact
     000D5769  _trigger_49_interact               trigger_49_interact
     000D576C  GBVM$trigger_49_interact$2daeb45   trigger_49_interact
     000D579F  _trigger_50_interact               trigger_50_interact
     000D57A0  GBVM$trigger_50_interact$36beabf   trigger_50_interact
     000D57CD  _trigger_51_interact               trigger_51_interact
     000D57D0  GBVM$trigger_51_interact$fd00c61   trigger_51_interact
     000D5803  _trigger_53_interact               trigger_53_interact
     000D5806  GBVM$trigger_53_interact$c684c23   trigger_53_interact
     000D5839  _trigger_54_interact               trigger_54_interact
     000D583C  GBVM$trigger_54_interact$01f35ee   trigger_54_interact
     000D586F  _trigger_55_interact               trigger_55_interact
     000D5872  GBVM$trigger_55_interact$a4a1170   trigger_55_interact
     000D58A5  _trigger_56_interact               trigger_56_interact
     000D58A8  GBVM$trigger_56_interact$343c472   trigger_56_interact
     000D58DB  _trigger_57_interact               trigger_57_interact
     000D58DE  GBVM$trigger_57_interact$f2130a3   trigger_57_interact
     000D5907  _trigger_58_interact               trigger_58_interact
     000D590A  GBVM$trigger_58_interact$392df37   trigger_58_interact
     000D593D  _trigger_59_interact               trigger_59_interact
     000D5940  GBVM$trigger_59_interact$b58b506   trigger_59_interact
ASxxxx Linker V03.00/V05.40 + sdld,  page 60.
Hexadecimal  [32-Bits]

Area                                    Addr        Size        Decimal Bytes (Attributes)
--------------------------------        ----        ----        ------- ----- ------------
_CODE_13                            000D4000    00001A34 =        6708. bytes (REL,CON)

      Value  Global                              Global Defined In Module
      -----  --------------------------------   ------------------------
     000D5973  _trigger_7_interact                trigger_7_interact
     000D5974  GBVM$trigger_7_interact$3af59bd9   trigger_7_interact
     000D599F  _trigger_78_interact               trigger_78_interact
     000D59A0  GBVM$trigger_78_interact$7e0276c   trigger_78_interact
     000D59C6  _trigger_81_interact               trigger_81_interact
     000D59C7  GBVM$trigger_81_interact$8987a88   trigger_81_interact
     000D59F0  _trigger_98_interact               trigger_98_interact
     000D59F1  GBVM$trigger_98_interact$cbbb04f   trigger_98_interact
     000D5A23  _logo_init                         logo
     000D5A33  _logo_update                       logo
ASxxxx Linker V03.00/V05.40 + sdld,  page 61.
Hexadecimal  [32-Bits]

Area                                    Addr        Size        Decimal Bytes (Attributes)
--------------------------------        ----        ----        ------- ----- ------------
_CODE_8                             00084000    00003FFF =       16383. bytes (REL,CON)

      Value  Global                              Global Defined In Module
      -----  --------------------------------   ------------------------
     00084000  _core_reset                        core
     00084075  _process_VM                        core
     000842F7  _core_run                          core
     000843D3  ___HandleCrash_banked              
     0008473B  _CGBFadeToWhiteStep                fade_manager
     00084774  _CGBFadeToBlackStep                fade_manager
     000847AF  _ApplyPaletteChangeColor           fade_manager
     000847EC  _fade_speeds                       fade_manager
     000847F3  _DMGFadeToWhiteStep                fade_manager
     00084814  _DMGFadeToBlackStep                fade_manager
     00084837  _ApplyPaletteChangeDMG             fade_manager
     0008488D  _fade_init                         fade_manager
     000848AE  _fade_in                           fade_manager
     000848E6  _fade_out                          fade_manager
     0008491F  _fade_update                       fade_manager
     00084972  _fade_applypalettechange           fade_manager
     00084984  _fade_setspeed                     fade_manager
     00084994  _fade_in_modal                     fade_manager
     000849AE  _fade_out_modal                    fade_manager
     000849C8  _printer_send_receive              gbprinter
     000849FE  _printer_send_byte                 gbprinter
     00084A11  _printer_send_command              gbprinter
     00084A34  _printer_print_tile                gbprinter
     00084AC5  _printer_wait                      gbprinter
     00084AF7  _gbprinter_detect                  gbprinter
     00084B11  _gbprinter_print_overlay           gbprinter
     00084CDE  _data_init                         load_save
     00084D29  _save_points                       load_save
     00084D89  _data_slot_address                 load_save
     00084E01  _data_save                         load_save
     00084EC2  _data_load                         load_save
     00084FD6  _data_clear                        load_save
     00085003  _data_peek                         load_save
     000850A4  _atan2                             math_atan2
     0008523D  _atan2_table                       math_atan2
     000853A5  _trigger_reset                     trigger
     000853B5  _trigger_interact                  trigger
     000853F4  _trigger_activate_at               trigger
     0008543F  _trigger_at_intersection           trigger
     00085566  _trigger_activate_at_intersectio   trigger
     000856A7  _trigger_at_tile                   trigger
     00085738  ___func_VM_CAMERA                  vm_camera
     00085738  _vm_camera_move_to                 vm_camera
     0008598B  _vm_camera_set_pos                 vm_camera
     000859D2  _camera_shake_frames               vm_camera
     00085B01  ___func_VM_SIO                     vm_sio
     00085B01  _vm_sio_set_mode                   vm_sio
     00085B13  _vm_sio_exchange                   vm_sio
     00085DF5  _actor_1_interact                  actor_1_interact
     00085DF8  GBVM$actor_1_interact$31959059_f   actor_1_interact
ASxxxx Linker V03.00/V05.40 + sdld,  page 62.
Hexadecimal  [32-Bits]

Area                                    Addr        Size        Decimal Bytes (Attributes)
--------------------------------        ----        ----        ------- ----- ------------
_CODE_8                             00084000    00003FFF =       16383. bytes (REL,CON)

      Value  Global                              Global Defined In Module
      -----  --------------------------------   ------------------------
     00085E11  GBVM$actor_1_interact$73c10065_8   actor_1_interact
     00085E21  GBVM$actor_1_interact$7a91bc0b_b   actor_1_interact
     00085EA9  GBVM$actor_1_interact$63f4a303_d   actor_1_interact
     00085EB1  GBVM$actor_1_interact$39acbf7d_5   actor_1_interact
     00085F9A  GBVM$actor_1_interact$cbb416b5_5   actor_1_interact
     00085FAE  GBVM$actor_1_interact$d7678b7d_3   actor_1_interact
     00085FDF  GBVM$actor_1_interact$34c98e31_0   actor_1_interact
     00086019  GBVM$actor_1_interact$8fd358ae_8   actor_1_interact
     00086031  GBVM$actor_1_interact$5c311fdc_2   actor_1_interact
     00086036  GBVM$actor_1_interact$ef378dd0_c   actor_1_interact
     000860AD  GBVM$actor_1_interact$9c9eb64e_1   actor_1_interact
     000860B1  GBVM_END$actor_1_interact$8fd358   actor_1_interact
     000860B1  GBVM_END$actor_1_interact$cbb416   actor_1_interact
     000860B4  GBVM_END$actor_1_interact$73c100   actor_1_interact
     000860B7  GBVM$actor_1_interact$9b29a4f5_b   actor_1_interact
     00086132  GBVM_END$actor_1_interact$319590   actor_1_interact
     00086133  ___func_bg_new_folder_gate_close   bg_new_folder_gate_close_til
     00086133  _bg_new_folder_gate_close_tilema   bg_new_folder_gate_close_til
     0008638B  ___func_bg_new_folder_kitchen_to   bg_new_folder_kitchen_tower_
     0008638B  _bg_new_folder_kitchen_tower_til   bg_new_folder_kitchen_tower_
     0008670F  ___func_bg_new_folder_kitchen_to   bg_new_folder_kitchen_tower_
     0008670F  _bg_new_folder_kitchen_tower_til   bg_new_folder_kitchen_tower_
     00086A93  ___func_bg_stars_tilemap           bg_stars_tilemap
     00086A93  _bg_stars_tilemap                  bg_stars_tilemap
     00086E93  ___func_scene_12_collisions        scene_12_collisions
     00086E93  _scene_12_collisions               scene_12_collisions
     00087293  _scene_3_init                      scene_3_init
     00087296  GBVM$scene_3_init$20840740_b5b1_   scene_3_init
     000872A7  GBVM$scene_3_init$05a0e914_8d7f_   scene_3_init
     000872AB  GBVM$scene_3_init$autofade$8bb32   scene_3_init
     000872C1  GBVM$scene_3_init$eb06dd5f_a419_   scene_3_init
     000872E3  GBVM$scene_3_init$3d2affc6_2946_   scene_3_init
     000872FB  GBVM$scene_3_init$a5878de8_edec_   scene_3_init
     000872FF  GBVM$scene_3_init$b738a9fc_1dfb_   scene_3_init
     000872FF  GBVM_END$scene_3_init$3d2affc6_2   scene_3_init
     00087329  GBVM$scene_3_init$93be6dfb_ddf8_   scene_3_init
     00087364  GBVM$scene_3_init$d6e86405_3643_   scene_3_init
     00087379  GBVM$scene_3_init$f1b98e78_6e69_   scene_3_init
     000873AE  GBVM$scene_3_init$dd011f1e_36d3_   scene_3_init
     000874E7  GBVM$scene_3_init$b6f74b9c_f016_   scene_3_init
     00087519  GBVM_END$scene_3_init$d6e86405_3   scene_3_init
     0008751A  ___func_scene_6_collisions         scene_6_collisions
     0008751A  _scene_6_collisions                scene_6_collisions
     0008789E  _scene_8_init                      scene_8_init
     000878A1  GBVM$scene_8_init$7cbab075_a85b_   scene_8_init
     000878B2  GBVM$scene_8_init$9353612b_db09_   scene_8_init
     000878B6  GBVM$scene_8_init$autofade$2bbdd   scene_8_init
     000878CC  GBVM$scene_8_init$47ba9b54_9bf9_   scene_8_init
     000878D0  GBVM$scene_8_init$678129d6_9712_   scene_8_init
     000878ED  _trigger_97_interact               trigger_97_interact
     000878F0  GBVM$trigger_97_interact$fafa8ce   trigger_97_interact
ASxxxx Linker V03.00/V05.40 + sdld,  page 63.
Hexadecimal  [32-Bits]

Area                                    Addr        Size        Decimal Bytes (Attributes)
--------------------------------        ----        ----        ------- ----- ------------
_CODE_8                             00084000    00003FFF =       16383. bytes (REL,CON)

      Value  Global                              Global Defined In Module
      -----  --------------------------------   ------------------------
     0008792F  GBVM$trigger_97_interact$afaf9c2   trigger_97_interact
     00087943  GBVM$trigger_97_interact$06a99e3   trigger_97_interact
     0008795C  GBVM$trigger_97_interact$104f37c   trigger_97_interact
     000879BB  GBVM$trigger_97_interact$b7b749f   trigger_97_interact
     000879D0  GBVM$trigger_97_interact$a1ab349   trigger_97_interact
     00087A3D  GBVM$trigger_97_interact$83ad74b   trigger_97_interact
     00087A56  GBVM$trigger_97_interact$0d883e6   trigger_97_interact
     00087A79  GBVM$trigger_97_interact$75549e0   trigger_97_interact
     00087AA7  GBVM$trigger_97_interact$1e09d3f   trigger_97_interact
     00087AC0  GBVM$trigger_97_interact$549d4d3   trigger_97_interact
     00087AF1  GBVM$trigger_97_interact$77b1783   trigger_97_interact
     00087B0A  GBVM$trigger_97_interact$aa66ae7   trigger_97_interact
     00087B3C  GBVM$trigger_97_interact$9d53592   trigger_97_interact
     00087B51  GBVM$trigger_97_interact$a7a515d   trigger_97_interact
     00087B6A  GBVM$trigger_97_interact$002b030   trigger_97_interact
     00087BCD  GBVM$trigger_97_interact$9d764ae   trigger_97_interact
     00087BF0  GBVM$trigger_97_interact$ef4489f   trigger_97_interact
     00087C58  GBVM$trigger_97_interact$c23d7b5   trigger_97_interact
     00087C5D  GBVM$trigger_97_interact$b03ac30   trigger_97_interact
     00087C62  GBVM$trigger_97_interact$17494da   trigger_97_interact
     00087C72  GBVM$trigger_97_interact$c57f21a   trigger_97_interact
     00087C8A  GBVM_END$trigger_97_interact$174   trigger_97_interact
     00087C8A  GBVM_END$trigger_97_interact$9d5   trigger_97_interact
     00087C8A  GBVM_END$trigger_97_interact$afa   trigger_97_interact
     00087C8A  GBVM_END$trigger_97_interact$b7b   trigger_97_interact
     00087C8B  _pointnclick_init                  pointnclick
     00087CC4  _pointnclick_update                pointnclick

ASxxxx Linker V03.00/V05.40 + sdld,  page 64.
Hexadecimal  [32-Bits]

Area                                    Addr        Size        Decimal Bytes (Attributes)
--------------------------------        ----        ----        ------- ----- ------------
_CRASH_HEADER0                      00000000    00000005 =           5. bytes (ABS,CON)

      Value  Global                              Global Defined In Module
      -----  --------------------------------   ------------------------
ASxxxx Linker V03.00/V05.40 + sdld,  page 65.
Hexadecimal  [32-Bits]

Area                                    Addr        Size        Decimal Bytes (Attributes)
--------------------------------        ----        ----        ------- ----- ------------
_CRASH_HEADER1                      00000000    00000004 =           4. bytes (ABS,CON)

      Value  Global                              Global Defined In Module
      -----  --------------------------------   ------------------------
ASxxxx Linker V03.00/V05.40 + sdld,  page 66.
Hexadecimal  [32-Bits]

Area                                    Addr        Size        Decimal Bytes (Attributes)
--------------------------------        ----        ----        ------- ----- ------------
_CRASH_SCRATCH2                     00000000    000001CB =         459. bytes (ABS,CON)

      Value  Global                              Global Defined In Module
      -----  --------------------------------   ------------------------
ASxxxx Linker V03.00/V05.40 + sdld,  page 67.
Hexadecimal  [32-Bits]

Area                                    Addr        Size        Decimal Bytes (Attributes)
--------------------------------        ----        ----        ------- ----- ------------
_CODE_5                             00054000    00004000 =       16384. bytes (REL,CON)

      Value  Global                              Global Defined In Module
      -----  --------------------------------   ------------------------
     00054000  _load_init                         data_manager
     00054013  _spritesheet_none_far              data_manager
     00054016  _load_bkg_tileset                  data_manager
     000540F3  _load_background                   data_manager
     000541B9  _load_sprite                       data_manager
     0005428F  _load_bounds                       data_manager
     000542AC  _do_load_palette                   data_manager
     00054331  _load_scene                        data_manager
     00054997  _load_player                       data_manager
     000549E0  _load_emote                        data_manager
     000549F9  ___func_bg_new_folder_inner_east   bg_new_folder_inner_east_ga_
     000549F9  _bg_new_folder_inner_east_ga_til   bg_new_folder_inner_east_ga_
     0005540B  ___func_bg_new_folder_nw_tower2_   bg_new_folder_nw_tower2_tile
     0005540B  _bg_new_folder_nw_tower2_tileset   bg_new_folder_nw_tower2_tile
     00055E5D  ___func_bg_new_folder_se1_tilese   bg_new_folder_se1_tileset
     00055E5D  _bg_new_folder_se1_tileset         bg_new_folder_se1_tileset
     000568BF  ___func_bg_new_folder_se2_tilese   bg_new_folder_se2_tileset
     000568BF  _bg_new_folder_se2_tileset         bg_new_folder_se2_tileset
     00056D41  ___func_bg_new_folder_south_dam2   bg_new_folder_south_dam2_til
     00056D41  _bg_new_folder_south_dam2_tilese   bg_new_folder_south_dam2_til
     00057663  ___func_bg_new_folder_southwest1   bg_new_folder_southwest1_til
     00057663  _bg_new_folder_southwest1_tilese   bg_new_folder_southwest1_til
     00057FD5  ___func_sprite_cursors_default_c   sprite_cursors_default_curs
     00057FD5  _sprite_cursors_default_curs_met   sprite_cursors_default_curs
     00057FD9  _sprite_cursors_default_curs_met   sprite_cursors_default_curs
     00057FDB  _sprite_cursors_default_curs_ani   sprite_cursors_default_curs
     00057FEB  _sprite_cursors_default_curs_ani   sprite_cursors_default_curs
     00057FED  _sprite_cursors_default_curs       sprite_cursors_default_curs

ASxxxx Linker V03.00/V05.40 + sdld,  page 68.
Hexadecimal  [32-Bits]

Area                                    Addr        Size        Decimal Bytes (Attributes)
--------------------------------        ----        ----        ------- ----- ------------
_CODE_12                            000C4000    00004000 =       16384. bytes (REL,CON)

      Value  Global                              Global Defined In Module
      -----  --------------------------------   ------------------------
     000C4000  _events_init                       events
     000C4040  _timers_init                       events
     000C40E8  _save_sram_banks                   
     000C4170  _erase_flash                       
     000C4186  _restore_sram_bank                 flasher
     000C41BC  _restore_sram                      flasher
     000C41D2  _save_sram                         flasher
     000C41FE  _music_init_driver                 music_manager
     000C425A  _music_init_events                 music_manager
     000C4296  _music_events_poll                 music_manager
     000C42BE  _music_pause                       music_manager
     000C42E0  _palette_init                      palette
     000C4317  _CGBZeroPalette                    palette
     000C432C  _scroll_rect                       
     000C4369  ___func_VM_GBPRINTER               vm_gbprinter
     000C4369  _vm_print_detect                   vm_gbprinter
     000C43B8  _vm_print_overlay                  vm_gbprinter
     000C440D  ___func_VM_LOAD_SAVE               vm_load_save
     000C440D  _vm_save_clear                     vm_load_save
     000C441C  _vm_save_peek                      vm_load_save
     000C449E  ___func_VM_PROJECTILE              vm_projectiles
     000C449E  _vm_projectile_launch              vm_projectiles
     000C44DF  _vm_projectile_load_type           vm_projectiles
     000C4571  ___func_VM_SCENE                   vm_scene
     000C4571  _vm_scene_push                     vm_scene
     000C45E7  _vm_scene_pop                      vm_scene
     000C45F5  _vm_scene_pop_all                  vm_scene
     000C4600  _vm_scene_stack_reset              vm_scene
     000C4609  _itoa_fmt                          vm_ui_a
     000C4642  .utoa_fmt                          vm_ui_a
     000C46EC  _actor_10_interact                 actor_10_interact
     000C46EF  GBVM$actor_10_interact$7c6f9739_   actor_10_interact
     000C4704  GBVM$actor_10_interact$9815adf8_   actor_10_interact
     000C4759  GBVM$actor_10_interact$81e4c9af_   actor_10_interact
     000C4789  GBVM_END$actor_10_interact$7c6f9   actor_10_interact
     000C478A  _actor_4_update                    actor_4_update
     000C478C  GBVM$actor_4_update$ae2a4c91_ef3   actor_4_update
     000C478C  GBVM$actor_4_update$b950ce83_c0a   actor_4_update
     000C4795  GBVM$actor_4_update$ffc9bb7c_ac7   actor_4_update
     000C47B0  GBVM$actor_4_update$ad714a3b_ce6   actor_4_update
     000C47CE  GBVM_END$actor_4_update$b950ce83   actor_4_update
     000C47D3  _actor_46_interact                 actor_46_interact
     000C47D4  GBVM$actor_46_interact$7c1ded66_   actor_46_interact
     000C4832  _actor_6_interact                  actor_6_interact
     000C4833  GBVM$actor_6_interact$e561f361_8   actor_6_interact
     000C48E3  _actor_7_interact                  actor_7_interact
     000C48E6  GBVM$actor_7_interact$b34b2412_6   actor_7_interact
     000C4903  GBVM$actor_7_interact$e5e8e2fa_b   actor_7_interact
     000C4930  GBVM_END$actor_7_interact$b34b24   actor_7_interact
     000C4931  ___func_bg_new_folder_top_down_c   bg_new_folder_top_down_c_1__
ASxxxx Linker V03.00/V05.40 + sdld,  page 69.
Hexadecimal  [32-Bits]

Area                                    Addr        Size        Decimal Bytes (Attributes)
--------------------------------        ----        ----        ------- ----- ------------
_CODE_12                            000C4000    00004000 =       16384. bytes (REL,CON)

      Value  Global                              Global Defined In Module
      -----  --------------------------------   ------------------------
     000C4931  _bg_new_folder_top_down_c_1__til   bg_new_folder_top_down_c_1__
     000C49C3  ___func_bg_new_folder_top_down_k   bg_new_folder_top_down_kitc_
     000C49C3  _bg_new_folder_top_down_kitc_til   bg_new_folder_top_down_kitc_
     000C4A65  ___func_bg_new_folder_top_down_t   bg_new_folder_top_down_towe_
     000C4A65  _bg_new_folder_top_down_towe_0_t   bg_new_folder_top_down_towe_
     000C4B37  ___func_bg_new_folder_top_down_t   bg_new_folder_top_down_towe_
     000C4B37  _bg_new_folder_top_down_towe_1_t   bg_new_folder_top_down_towe_
     000C4C09  ___func_bg_new_folder_top_down_t   bg_new_folder_top_down_towe_
     000C4C09  _bg_new_folder_top_down_towe_2_t   bg_new_folder_top_down_towe_
     000C4CEB  ___func_bg_stars_tileset           bg_stars_tileset
     000C4CEB  _bg_stars_tileset                  bg_stars_tileset
     000C4D3D  ___func_emote_question             emote_question
     000C4D3D  _emote_question                    emote_question
     000C4D7D  ___func_emote_shock                emote_shock
     000C4D7D  _emote_shock                       emote_shock
     000C4DBD  ___func_emote_sleep                emote_sleep
     000C4DBD  _emote_sleep                       emote_sleep
     000C4DFD  ___func_frame_image                frame_image
     000C4DFD  _frame_image                       frame_image
     000C4E8D  ___func_palette_0                  palette_0
     000C4E8D  _palette_0                         palette_0
     000C4ED0  ___func_palette_1                  palette_1
     000C4ED0  _palette_1                         palette_1
     000C4F13  ___func_palette_2                  palette_2
     000C4F13  _palette_2                         palette_2
     000C4F56  ___func_palette_3                  palette_3
     000C4F56  _palette_3                         palette_3
     000C4F99  _scene_0_init                      scene_0_init
     000C4F9C  GBVM$scene_0_init$3a2ee12f_a3ce_   scene_0_init
     000C4FA6  GBVM$scene_0_init$dcff09e9_844c_   scene_0_init
     000C4FAD  GBVM$scene_0_init$a275f297_248b_   scene_0_init
     000C4FB4  GBVM$scene_0_init$f3196a50_c2a6_   scene_0_init
     000C4FBE  GBVM$scene_0_init$9556c290_115d_   scene_0_init
     000C4FC8  GBVM$scene_0_init$600ea024_58d8_   scene_0_init
     000C4FCC  GBVM$scene_0_init$autofade$ac860   scene_0_init
     000C4FE3  ___func_scene_0_triggers           scene_0_triggers
     000C4FE3  _scene_0_triggers                  scene_0_triggers
     000C501B  ___func_scene_0                    scene_0
     000C501B  _scene_0                           scene_0
     000C5056  _scene_1_init                      scene_1_init
     000C5059  GBVM$scene_1_init$1538b238_5334_   scene_1_init
     000C506F  GBVM$scene_1_init$7af0ad34_f234_   scene_1_init
     000C5081  GBVM$scene_1_init$631ed6b2_2b07_   scene_1_init
     000C50B3  GBVM$scene_1_init$495811a9_35b1_   scene_1_init
     000C50BE  ___func_scene_1                    scene_1
     000C50BE  _scene_1                           scene_1
     000C50F9  _scene_10_init                     scene_10_init
     000C50FC  GBVM$scene_10_init$ce0edea7_d6f3   scene_10_init
     000C5100  GBVM$scene_10_init$autofade$161a   scene_10_init
     000C5116  GBVM$scene_10_init$a5517669_94c8   scene_10_init
     000C511B  ___func_scene_10                   scene_10
ASxxxx Linker V03.00/V05.40 + sdld,  page 70.
Hexadecimal  [32-Bits]

Area                                    Addr        Size        Decimal Bytes (Attributes)
--------------------------------        ----        ----        ------- ----- ------------
_CODE_12                            000C4000    00004000 =       16384. bytes (REL,CON)

      Value  Global                              Global Defined In Module
      -----  --------------------------------   ------------------------
     000C511B  _scene_10                          scene_10
     000C5156  _scene_12_init                     scene_12_init
     000C5159  GBVM$scene_12_init$341e5ea1_735d   scene_12_init
     000C515D  GBVM$scene_12_init$autofade$779c   scene_12_init
     000C5173  GBVM$scene_12_init$199aeac8_a938   scene_12_init
     000C5177  GBVM$scene_12_init$1cd7854d_603d   scene_12_init
     000C518C  GBVM$scene_12_init$c90e17b3_7eac   scene_12_init
     000C5190  GBVM$scene_12_init$370824e0_011d   scene_12_init
     000C5194  GBVM_END$scene_12_init$1cd7854d_   scene_12_init
     000C5195  ___func_scene_12                   scene_12
     000C5195  _scene_12                          scene_12
     000C51D0  ___func_scene_13                   scene_13
     000C51D0  _scene_13                          scene_13
     000C520B  ___func_scene_14                   scene_14
     000C520B  _scene_14                          scene_14
     000C5246  ___func_scene_15                   scene_15
     000C5246  _scene_15                          scene_15
     000C5281  ___func_scene_16                   scene_16
     000C5281  _scene_16                          scene_16
     000C52BC  ___func_scene_17                   scene_17
     000C52BC  _scene_17                          scene_17
     000C52F7  ___func_scene_18                   scene_18
     000C52F7  _scene_18                          scene_18
     000C5332  ___func_scene_19_actors            scene_19_actors
     000C5332  _scene_19_actors                   scene_19_actors
     000C5436  _scene_19_init                     scene_19_init
     000C5439  GBVM$scene_19_init$e72533e0_e1e5   scene_19_init
     000C5440  GBVM$scene_19_init$08360e8d_f8a9   scene_19_init
     000C5447  GBVM$scene_19_init$a1043ab2_ddb5   scene_19_init
     000C544E  GBVM$scene_19_init$80b206f2_6d75   scene_19_init
     000C5455  GBVM$scene_19_init$486e5e66_7bae   scene_19_init
     000C545C  GBVM$scene_19_init$dd9139be_2ed3   scene_19_init
     000C5460  GBVM$scene_19_init$autofade$d48f   scene_19_init
     000C5477  ___func_scene_19                   scene_19
     000C5477  _scene_19                          scene_19
     000C54B2  ___func_scene_2_triggers           scene_2_triggers
     000C54B2  _scene_2_triggers                  scene_2_triggers
     000C54F2  ___func_scene_2                    scene_2
     000C54F2  _scene_2                           scene_2
     000C552D  _scene_20_init                     scene_20_init
     000C5530  GBVM$scene_20_init$b505216b_f4e0   scene_20_init
     000C5537  GBVM$scene_20_init$8f841357_8060   scene_20_init
     000C5541  GBVM$scene_20_init$8db3cd67_42e1   scene_20_init
     000C5548  GBVM$scene_20_init$126b14ef_b92d   scene_20_init
     000C554F  GBVM$scene_20_init$fea275f1_1c4c   scene_20_init
     000C5556  GBVM$scene_20_init$8b599efd_4832   scene_20_init
     000C555A  GBVM$scene_20_init$autofade$bfe0   scene_20_init
     000C5571  ___func_scene_20_triggers          scene_20_triggers
     000C5571  _scene_20_triggers                 scene_20_triggers
     000C55B1  ___func_scene_20                   scene_20
     000C55B1  _scene_20                          scene_20
ASxxxx Linker V03.00/V05.40 + sdld,  page 71.
Hexadecimal  [32-Bits]

Area                                    Addr        Size        Decimal Bytes (Attributes)
--------------------------------        ----        ----        ------- ----- ------------
_CODE_12                            000C4000    00004000 =       16384. bytes (REL,CON)

      Value  Global                              Global Defined In Module
      -----  --------------------------------   ------------------------
     000C55EC  _scene_21_init                     scene_21_init
     000C55EF  GBVM$scene_21_init$6ef333e9_8bb1   scene_21_init
     000C55F6  GBVM$scene_21_init$bc90f95b_ce72   scene_21_init
     000C55FD  GBVM$scene_21_init$e23c35b7_3551   scene_21_init
     000C5604  GBVM$scene_21_init$69bcdfa4_44a2   scene_21_init
     000C560B  GBVM$scene_21_init$bea79750_d34f   scene_21_init
     000C5612  GBVM$scene_21_init$529ff610_6093   scene_21_init
     000C5616  GBVM$scene_21_init$autofade$9980   scene_21_init
     000C562D  ___func_scene_21_triggers          scene_21_triggers
     000C562D  _scene_21_triggers                 scene_21_triggers
     000C5665  ___func_scene_21                   scene_21
     000C5665  _scene_21                          scene_21
     000C56A0  ___func_scene_22_actors            scene_22_actors
     000C56A0  _scene_22_actors                   scene_22_actors
     000C5708  ___func_scene_22                   scene_22
     000C5708  _scene_22                          scene_22
     000C5743  ___func_scene_23_actors            scene_23_actors
     000C5743  _scene_23_actors                   scene_23_actors
     000C57AB  ___func_scene_23                   scene_23
     000C57AB  _scene_23                          scene_23
     000C57E6  _scene_24_init                     scene_24_init
     000C57E9  GBVM$scene_24_init$120aabc0_289e   scene_24_init
     000C57F0  GBVM$scene_24_init$c1f91a8e_860d   scene_24_init
     000C57F7  GBVM$scene_24_init$46a0c23e_0ec7   scene_24_init
     000C57FE  GBVM$scene_24_init$20710670_9749   scene_24_init
     000C5805  GBVM$scene_24_init$55e9abce_97e2   scene_24_init
     000C580C  GBVM$scene_24_init$a6317d86_6cdb   scene_24_init
     000C5810  GBVM$scene_24_init$autofade$dd2d   scene_24_init
     000C5827  ___func_scene_24_triggers          scene_24_triggers
     000C5827  _scene_24_triggers                 scene_24_triggers
     000C585F  ___func_scene_24                   scene_24
     000C585F  _scene_24                          scene_24
     000C589A  ___func_scene_25_actors            scene_25_actors
     000C589A  _scene_25_actors                   scene_25_actors
     000C5902  ___func_scene_25                   scene_25
     000C5902  _scene_25                          scene_25
     000C593D  ___func_scene_26_actors            scene_26_actors
     000C593D  _scene_26_actors                   scene_26_actors
     000C59A5  ___func_scene_26                   scene_26
     000C59A5  _scene_26                          scene_26
     000C59E0  ___func_scene_27_actors            scene_27_actors
     000C59E0  _scene_27_actors                   scene_27_actors
     000C5A48  ___func_scene_27                   scene_27
     000C5A48  _scene_27                          scene_27
     000C5A83  ___func_scene_28                   scene_28
     000C5A83  _scene_28                          scene_28
     000C5ABE  ___func_scene_29_actors            scene_29_actors
     000C5ABE  _scene_29_actors                   scene_29_actors
     000C5BC2  _scene_29_init                     scene_29_init
     000C5BC5  GBVM$scene_29_init$autofade$f623   scene_29_init
     000C5BDB  GBVM$scene_29_init$fcd988b2_402e   scene_29_init
ASxxxx Linker V03.00/V05.40 + sdld,  page 72.
Hexadecimal  [32-Bits]

Area                                    Addr        Size        Decimal Bytes (Attributes)
--------------------------------        ----        ----        ------- ----- ------------
_CODE_12                            000C4000    00004000 =       16384. bytes (REL,CON)

      Value  Global                              Global Defined In Module
      -----  --------------------------------   ------------------------
     000C5BF3  GBVM$scene_29_init$722d1b4e_a89a   scene_29_init
     000C5C0E  GBVM$scene_29_init$97656d51_0c1d   scene_29_init
     000C5C16  GBVM$scene_29_init$71d6d8eb_c5e1   scene_29_init
     000C5C16  GBVM_END$scene_29_init$fcd988b2_   scene_29_init
     000C5C1E  GBVM$scene_29_init$a7e0b2c6_a0bb   scene_29_init
     000C5C28  GBVM$scene_29_init$e51dab0c_299a   scene_29_init
     000C5C2C  GBVM$scene_29_init$892c967c_33cc   scene_29_init
     000C5C30  GBVM$scene_29_init$303421e9_2004   scene_29_init
     000C5C45  GBVM$scene_29_init$d1babd7e_6b8d   scene_29_init
     000C5C49  GBVM$scene_29_init$84d61af2_f07c   scene_29_init
     000C5C4D  GBVM_END$scene_29_init$303421e9_   scene_29_init
     000C5C4E  ___func_scene_29                   scene_29
     000C5C4E  _scene_29                          scene_29
     000C5C89  ___func_scene_3                    scene_3
     000C5C89  _scene_3                           scene_3
     000C5CC4  ___func_scene_30                   scene_30
     000C5CC4  _scene_30                          scene_30
     000C5CFF  ___func_scene_31                   scene_31
     000C5CFF  _scene_31                          scene_31
     000C5D3A  _scene_32_init                     scene_32_init
     000C5D3D  GBVM$scene_32_init$17806cee_2d4d   scene_32_init
     000C5D41  GBVM$scene_32_init$b2567609_5b70   scene_32_init
     000C5D49  GBVM$scene_32_init$autofade$a983   scene_32_init
     000C5D5F  GBVM$scene_32_init$03c66bcb_1e1a   scene_32_init
     000C5D5F  GBVM$scene_32_init$15c2b647_82a7   scene_32_init
     000C5DA4  GBVM$scene_32_init$0cb29532_0bd1   scene_32_init
     000C5DBC  GBVM$scene_32_init$1dbccd3e_6d1c   scene_32_init
     000C5DEE  GBVM$scene_32_init$d90bb6a4_c0ea   scene_32_init
     000C5DEE  GBVM_END$scene_32_init$0cb29532_   scene_32_init
     000C5E04  GBVM$scene_32_init$875135db_ce21   scene_32_init
     000C5E08  GBVM$scene_32_init$747a225e_f500   scene_32_init
     000C5E08  GBVM_END$scene_32_init$d90bb6a4_   scene_32_init
     000C5E39  GBVM_END$scene_32_init$15c2b647_   scene_32_init
     000C5E3A  ___func_scene_32                   scene_32
     000C5E3A  _scene_32                          scene_32
     000C5E75  ___func_scene_4                    scene_4
     000C5E75  _scene_4                           scene_4
     000C5EB0  ___func_scene_5                    scene_5
     000C5EB0  _scene_5                           scene_5
     000C5EEB  ___func_scene_6                    scene_6
     000C5EEB  _scene_6                           scene_6
     000C5F26  ___func_scene_7                    scene_7
     000C5F26  _scene_7                           scene_7
     000C5F61  ___func_scene_8                    scene_8
     000C5F61  _scene_8                           scene_8
     000C5F9C  ___func_scene_9                    scene_9
     000C5F9C  _scene_9                           scene_9
     000C5FD7  _script_4                          script_4
     000C5FD9  GBVM$script_4$e2be3ce6_7008_4e14   script_4
     000C5FF5  GBVM$script_4$1bd898fb_6e4c_4b36   script_4
     000C60A8  GBVM_END$script_4$e2be3ce6_7008_   script_4
ASxxxx Linker V03.00/V05.40 + sdld,  page 73.
Hexadecimal  [32-Bits]

Area                                    Addr        Size        Decimal Bytes (Attributes)
--------------------------------        ----        ----        ------- ----- ------------
_CODE_12                            000C4000    00004000 =       16384. bytes (REL,CON)

      Value  Global                              Global Defined In Module
      -----  --------------------------------   ------------------------
     000C60AC  _script_7                          script_7
     000C60AE  GBVM$script_7$7c4dc93e_6221_4b1c   script_7
     000C60C6  GBVM$script_7$5f33f3b0_7a1c_404f   script_7
     000C60E3  GBVM$script_7$a6b5358b_a879_4473   script_7
     000C60F5  GBVM_END$script_7$5f33f3b0_7a1c_   script_7
     000C60F5  GBVM_END$script_7$7c4dc93e_6221_   script_7
     000C60F9  _script_engine_init                
     000C6179  ___func_sprite_actor_animated      sprite_actor_animated
     000C6179  _sprite_actor_animated_metasprit   sprite_actor_animated
     000C6185  _sprite_actor_animated_metasprit   sprite_actor_animated
     000C6191  _sprite_actor_animated_metasprit   sprite_actor_animated
     000C619D  _sprite_actor_animated_metasprit   sprite_actor_animated
     000C61A9  _sprite_actor_animated_metasprit   sprite_actor_animated
     000C61B5  _sprite_actor_animated_metasprit   sprite_actor_animated
     000C61C1  _sprite_actor_animated_metasprit   sprite_actor_animated
     000C61CD  _sprite_actor_animated_metasprit   sprite_actor_animated
     000C61D9  _sprite_actor_animated_metasprit   sprite_actor_animated
     000C61F1  _sprite_actor_animated_animation   sprite_actor_animated
     000C6201  _sprite_actor_animated_animation   sprite_actor_animated
     000C6203  _sprite_actor_animated             sprite_actor_animated
     000C6216  ___func_sprite_animated_animals_   sprite_animated_animals_cro_
     000C6216  _sprite_animated_animals_cro_0_t   sprite_animated_animals_cro_
     000C62D8  ___func_sprite_animated_animals_   sprite_animated_animals_cro_
     000C62D8  _sprite_animated_animals_cro_til   sprite_animated_animals_cro_
     000C639A  ___func_sprite_animated_animals_   sprite_animated_animals_cro
     000C639A  _sprite_animated_animals_cro_met   sprite_animated_animals_cro
     000C63A6  _sprite_animated_animals_cro_met   sprite_animated_animals_cro
     000C63B2  _sprite_animated_animals_cro_met   sprite_animated_animals_cro
     000C63BE  _sprite_animated_animals_cro_met   sprite_animated_animals_cro
     000C63CA  _sprite_animated_animals_cro_met   sprite_animated_animals_cro
     000C63D2  _sprite_animated_animals_cro_ani   sprite_animated_animals_cro
     000C63E2  _sprite_animated_animals_cro_ani   sprite_animated_animals_cro
     000C63E4  _sprite_animated_animals_cro       sprite_animated_animals_cro
     000C63F7  ___func_sprite_animated_animals_   sprite_animated_animals_sea
     000C63F7  _sprite_animated_animals_sea_met   sprite_animated_animals_sea
     000C6403  _sprite_animated_animals_sea_met   sprite_animated_animals_sea
     000C640F  _sprite_animated_animals_sea_met   sprite_animated_animals_sea
     000C641B  _sprite_animated_animals_sea_met   sprite_animated_animals_sea
     000C6427  _sprite_animated_animals_sea_met   sprite_animated_animals_sea
     000C6433  _sprite_animated_animals_sea_met   sprite_animated_animals_sea
     000C643F  _sprite_animated_animals_sea_met   sprite_animated_animals_sea
     000C644B  _sprite_animated_animals_sea_met   sprite_animated_animals_sea
     000C6457  _sprite_animated_animals_sea_met   sprite_animated_animals_sea
     000C646F  _sprite_animated_animals_sea_ani   sprite_animated_animals_sea
     000C647F  _sprite_animated_animals_sea_ani   sprite_animated_animals_sea
     000C6481  _sprite_animated_animals_sea       sprite_animated_animals_sea
     000C6494  ___func_sprite_animated_crosshai   sprite_animated_crosshairs__
     000C6494  _sprite_animated_crosshairs__10_   sprite_animated_crosshairs__
     000C6516  ___func_sprite_animated_crosshai   sprite_animated_crosshairs__
     000C6516  _sprite_animated_crosshairs__10_   sprite_animated_crosshairs__
     000C6522  _sprite_animated_crosshairs__10_   sprite_animated_crosshairs__
ASxxxx Linker V03.00/V05.40 + sdld,  page 74.
Hexadecimal  [32-Bits]

Area                                    Addr        Size        Decimal Bytes (Attributes)
--------------------------------        ----        ----        ------- ----- ------------
_CODE_12                            000C4000    00004000 =       16384. bytes (REL,CON)

      Value  Global                              Global Defined In Module
      -----  --------------------------------   ------------------------
     000C652E  _sprite_animated_crosshairs__10_   sprite_animated_crosshairs__
     000C653A  _sprite_animated_crosshairs__10_   sprite_animated_crosshairs__
     000C6540  _sprite_animated_crosshairs__10_   sprite_animated_crosshairs__
     000C6550  _sprite_animated_crosshairs__10_   sprite_animated_crosshairs__
     000C6552  _sprite_animated_crosshairs__10    sprite_animated_crosshairs__
     000C6565  ___func_sprite_animated_crosshai   sprite_animated_crosshairs__
     000C6565  _sprite_animated_crosshairs__11_   sprite_animated_crosshairs__
     000C65E7  ___func_sprite_animated_crosshai   sprite_animated_crosshairs__
     000C65E7  _sprite_animated_crosshairs__11_   sprite_animated_crosshairs__
     000C65F3  _sprite_animated_crosshairs__11_   sprite_animated_crosshairs__
     000C65FF  _sprite_animated_crosshairs__11_   sprite_animated_crosshairs__
     000C660B  _sprite_animated_crosshairs__11_   sprite_animated_crosshairs__
     000C6617  _sprite_animated_crosshairs__11_   sprite_animated_crosshairs__
     000C661F  _sprite_animated_crosshairs__11_   sprite_animated_crosshairs__
     000C662F  _sprite_animated_crosshairs__11_   sprite_animated_crosshairs__
     000C6631  _sprite_animated_crosshairs__11    sprite_animated_crosshairs__
     000C6644  ___func_sprite_animated_people_s   sprite_animated_people_spin_
     000C6644  _sprite_animated_people_spin_til   sprite_animated_people_spin_
     000C6766  ___func_sprite_animated_people_s   sprite_animated_people_spin
     000C6766  _sprite_animated_people_spin_met   sprite_animated_people_spin
     000C6772  _sprite_animated_people_spin_met   sprite_animated_people_spin
     000C677E  _sprite_animated_people_spin_met   sprite_animated_people_spin
     000C678A  _sprite_animated_people_spin_met   sprite_animated_people_spin
     000C6796  _sprite_animated_people_spin_met   sprite_animated_people_spin
     000C67A2  _sprite_animated_people_spin_met   sprite_animated_people_spin
     000C67AC  _sprite_animated_people_spin_ani   sprite_animated_people_spin
     000C67BC  _sprite_animated_people_spin_ani   sprite_animated_people_spin
     000C67BE  _sprite_animated_people_spin       sprite_animated_people_spin
     000C67D1  ___func_sprite_static_cats_cat_w   sprite_static_cats_cat_whit_
     000C67D1  _sprite_static_cats_cat_whit_til   sprite_static_cats_cat_whit_
     000C6813  _trigger_101_interact              trigger_101_interact
     000C6816  GBVM$trigger_101_interact$afe601   trigger_101_interact
     000C682B  GBVM$trigger_101_interact$c86dde   trigger_101_interact
     000C68B7  GBVM$trigger_101_interact$0e59c2   trigger_101_interact
     000C68BC  GBVM$trigger_101_interact$5961d1   trigger_101_interact
     000C68C0  GBVM$trigger_101_interact$ad63aa   trigger_101_interact
     000C68DB  GBVM$trigger_101_interact$363c3c   trigger_101_interact
     000C6900  GBVM_END$trigger_101_interact$af   trigger_101_interact
     000C6901  _trigger_102_interact              trigger_102_interact
     000C6902  GBVM$trigger_102_interact$3fa4ee   trigger_102_interact
     000C6965  _trigger_103_interact              trigger_103_interact
     000C6968  GBVM$trigger_103_interact$08858e   trigger_103_interact
     000C697D  GBVM$trigger_103_interact$eb3aa3   trigger_103_interact
     000C6A01  GBVM$trigger_103_interact$cd8c6a   trigger_103_interact
     000C6A06  GBVM$trigger_103_interact$473993   trigger_103_interact
     000C6A0A  GBVM$trigger_103_interact$a0f842   trigger_103_interact
     000C6A11  GBVM$trigger_103_interact$4c6aef   trigger_103_interact
     000C6A66  GBVM_END$trigger_103_interact$08   trigger_103_interact
     000C6A67  _trigger_107_interact              trigger_107_interact
     000C6A6A  GBVM$trigger_107_interact$53ebbe   trigger_107_interact
     000C6A7F  GBVM$trigger_107_interact$8dfc41   trigger_107_interact
ASxxxx Linker V03.00/V05.40 + sdld,  page 75.
Hexadecimal  [32-Bits]

Area                                    Addr        Size        Decimal Bytes (Attributes)
--------------------------------        ----        ----        ------- ----- ------------
_CODE_12                            000C4000    00004000 =       16384. bytes (REL,CON)

      Value  Global                              Global Defined In Module
      -----  --------------------------------   ------------------------
     000C6AD9  GBVM$trigger_107_interact$401ccd   trigger_107_interact
     000C6ADE  GBVM$trigger_107_interact$2dd275   trigger_107_interact
     000C6AE2  GBVM$trigger_107_interact$e3ff8f   trigger_107_interact
     000C6AE9  GBVM$trigger_107_interact$fce2dc   trigger_107_interact
     000C6B41  GBVM_END$trigger_107_interact$53   trigger_107_interact
     000C6B42  _trigger_109_interact              trigger_109_interact
     000C6B43  GBVM$trigger_109_interact$4a43c6   trigger_109_interact
     000C6B7B  _trigger_111_interact              trigger_111_interact
     000C6B7E  GBVM$trigger_111_interact$1a6796   trigger_111_interact
     000C6B93  GBVM$trigger_111_interact$e1cc9c   trigger_111_interact
     000C6C0C  GBVM$trigger_111_interact$0c9ca0   trigger_111_interact
     000C6C11  GBVM$trigger_111_interact$2d4ef4   trigger_111_interact
     000C6C18  GBVM$trigger_111_interact$6589b1   trigger_111_interact
     000C6C7F  GBVM_END$trigger_111_interact$1a   trigger_111_interact
     000C6C80  _trigger_112_interact              trigger_112_interact
     000C6C83  GBVM$trigger_112_interact$c7d372   trigger_112_interact
     000C6CA0  GBVM$trigger_112_interact$b69447   trigger_112_interact
     000C6CC6  GBVM_END$trigger_112_interact$c7   trigger_112_interact
     000C6CC7  _trigger_114_interact              trigger_114_interact
     000C6CC8  GBVM$trigger_114_interact$dd68c9   trigger_114_interact
     000C6D81  _trigger_115_interact              trigger_115_interact
     000C6D82  GBVM$trigger_115_interact$059af2   trigger_115_interact
     000C6E02  _trigger_116_interact              trigger_116_interact
     000C6E05  GBVM$trigger_116_interact$e3e60e   trigger_116_interact
     000C6E0D  GBVM$trigger_116_interact$9d1c70   trigger_116_interact
     000C6E1E  GBVM$trigger_116_interact$c6c11a   trigger_116_interact
     000C6E29  GBVM$trigger_116_interact$cbf1a7   trigger_116_interact
     000C6E44  GBVM$trigger_116_interact$f174d3   trigger_116_interact
     000C6E4C  GBVM$trigger_116_interact$0393c5   trigger_116_interact
     000C6EB2  GBVM$trigger_116_interact$1f06e4   trigger_116_interact
     000C6EB2  GBVM_END$trigger_116_interact$9d   trigger_116_interact
     000C6EB8  _trigger_117_interact              trigger_117_interact
     000C6EBB  GBVM$trigger_117_interact$36df35   trigger_117_interact
     000C6ED8  GBVM$trigger_117_interact$b8ef61   trigger_117_interact
     000C6F09  GBVM_END$trigger_117_interact$36   trigger_117_interact
     000C6F0A  _trigger_118_interact              trigger_118_interact
     000C6F0D  GBVM$trigger_118_interact$f6f835   trigger_118_interact
     000C6F2A  GBVM$trigger_118_interact$3bdf6c   trigger_118_interact
     000C6F5B  GBVM_END$trigger_118_interact$f6   trigger_118_interact
     000C6F5C  _trigger_120_interact              trigger_120_interact
     000C6F5F  GBVM$trigger_120_interact$a22c56   trigger_120_interact
     000C6F7C  GBVM$trigger_120_interact$4319ff   trigger_120_interact
     000C6F97  GBVM_END$trigger_120_interact$a2   trigger_120_interact
     000C6F98  _trigger_122_interact              trigger_122_interact
     000C6F9B  GBVM$trigger_122_interact$b895d9   trigger_122_interact
     000C6FB8  GBVM$trigger_122_interact$314c2d   trigger_122_interact
     000C6FDE  GBVM_END$trigger_122_interact$b8   trigger_122_interact
     000C6FDF  _trigger_123_interact              trigger_123_interact
     000C6FE2  GBVM$trigger_123_interact$9c05ba   trigger_123_interact
     000C6FFF  GBVM$trigger_123_interact$3d5414   trigger_123_interact
     000C7022  GBVM_END$trigger_123_interact$9c   trigger_123_interact
ASxxxx Linker V03.00/V05.40 + sdld,  page 76.
Hexadecimal  [32-Bits]

Area                                    Addr        Size        Decimal Bytes (Attributes)
--------------------------------        ----        ----        ------- ----- ------------
_CODE_12                            000C4000    00004000 =       16384. bytes (REL,CON)

      Value  Global                              Global Defined In Module
      -----  --------------------------------   ------------------------
     000C7023  _trigger_124_interact              trigger_124_interact
     000C7026  GBVM$trigger_124_interact$c52283   trigger_124_interact
     000C7043  GBVM$trigger_124_interact$b7dc65   trigger_124_interact
     000C7066  GBVM_END$trigger_124_interact$c5   trigger_124_interact
     000C7067  _trigger_13_interact               trigger_13_interact
     000C706A  GBVM$trigger_13_interact$fe2fc36   trigger_13_interact
     000C7087  GBVM$trigger_13_interact$1fb3428   trigger_13_interact
     000C70B9  GBVM$trigger_13_interact$e30bdbc   trigger_13_interact
     000C70C3  GBVM_END$trigger_13_interact$fe2   trigger_13_interact
     000C70C4  _trigger_14_interact               trigger_14_interact
     000C70C7  GBVM$trigger_14_interact$b1075e2   trigger_14_interact
     000C70E4  GBVM$trigger_14_interact$e3a953a   trigger_14_interact
     000C7116  GBVM$trigger_14_interact$3d255ca   trigger_14_interact
     000C7120  GBVM_END$trigger_14_interact$b10   trigger_14_interact
     000C7121  _trigger_16_interact               trigger_16_interact
     000C7124  GBVM$trigger_16_interact$477fe53   trigger_16_interact
     000C7141  GBVM$trigger_16_interact$6230d1c   trigger_16_interact
     000C7173  GBVM$trigger_16_interact$5382740   trigger_16_interact
     000C717D  GBVM_END$trigger_16_interact$477   trigger_16_interact
     000C717E  _trigger_18_interact               trigger_18_interact
     000C7181  GBVM$trigger_18_interact$66dc94d   trigger_18_interact
     000C7196  GBVM$trigger_18_interact$b376ef1   trigger_18_interact
     000C71BF  GBVM$trigger_18_interact$6fd5d98   trigger_18_interact
     000C71F1  GBVM_END$trigger_18_interact$66d   trigger_18_interact
     000C71F2  _trigger_29_interact               trigger_29_interact
     000C71F5  GBVM$trigger_29_interact$6f3324f   trigger_29_interact
     000C7206  GBVM$trigger_29_interact$45836d8   trigger_29_interact
     000C723B  GBVM$trigger_29_interact$9de5d7c   trigger_29_interact
     000C7261  GBVM_END$trigger_29_interact$6f3   trigger_29_interact
     000C7262  _trigger_33_interact               trigger_33_interact
     000C7265  GBVM$trigger_33_interact$2c02dd9   trigger_33_interact
     000C727E  GBVM$trigger_33_interact$f7b51b6   trigger_33_interact
     000C72A8  GBVM$trigger_33_interact$6b1fd7c   trigger_33_interact
     000C72D0  GBVM_END$trigger_33_interact$2c0   trigger_33_interact
     000C72D1  _trigger_35_interact               trigger_35_interact
     000C72D4  GBVM$trigger_35_interact$46dd5f1   trigger_35_interact
     000C72E5  GBVM$trigger_35_interact$e80fe27   trigger_35_interact
     000C7346  GBVM$trigger_35_interact$f830fe8   trigger_35_interact
     000C735B  GBVM$trigger_35_interact$2d3f23d   trigger_35_interact
     000C739C  GBVM$trigger_35_interact$d047cde   trigger_35_interact
     000C73CE  GBVM_END$trigger_35_interact$46d   trigger_35_interact
     000C73CE  GBVM_END$trigger_35_interact$f83   trigger_35_interact
     000C73CF  _trigger_4_interact                trigger_4_interact
     000C73D2  GBVM$trigger_4_interact$0fe2d958   trigger_4_interact
     000C73EF  GBVM$trigger_4_interact$a92941a3   trigger_4_interact
     000C7421  GBVM$trigger_4_interact$0e7b91ce   trigger_4_interact
     000C742B  GBVM_END$trigger_4_interact$0fe2   trigger_4_interact
     000C742C  _trigger_43_interact               trigger_43_interact
     000C742F  GBVM$trigger_43_interact$a2faf32   trigger_43_interact
     000C7444  GBVM$trigger_43_interact$4b6ffb2   trigger_43_interact
     000C746D  GBVM$trigger_43_interact$a2f0c47   trigger_43_interact
ASxxxx Linker V03.00/V05.40 + sdld,  page 77.
Hexadecimal  [32-Bits]

Area                                    Addr        Size        Decimal Bytes (Attributes)
--------------------------------        ----        ----        ------- ----- ------------
_CODE_12                            000C4000    00004000 =       16384. bytes (REL,CON)

      Value  Global                              Global Defined In Module
      -----  --------------------------------   ------------------------
     000C749F  GBVM_END$trigger_43_interact$a2f   trigger_43_interact
     000C74A0  _trigger_44_interact               trigger_44_interact
     000C74A3  GBVM$trigger_44_interact$68d8a5b   trigger_44_interact
     000C74B4  GBVM$trigger_44_interact$a96dfc4   trigger_44_interact
     000C74FF  GBVM$trigger_44_interact$b9795dd   trigger_44_interact
     000C7527  GBVM_END$trigger_44_interact$68d   trigger_44_interact
     000C7528  _trigger_5_interact                trigger_5_interact
     000C752B  GBVM$trigger_5_interact$0f2a9da3   trigger_5_interact
     000C7548  GBVM$trigger_5_interact$7a051eb6   trigger_5_interact
     000C757A  GBVM$trigger_5_interact$bfaee222   trigger_5_interact
     000C7584  GBVM_END$trigger_5_interact$0f2a   trigger_5_interact
     000C7585  _trigger_52_interact               trigger_52_interact
     000C7588  GBVM$trigger_52_interact$0b0ef26   trigger_52_interact
     000C759D  GBVM$trigger_52_interact$ce181e1   trigger_52_interact
     000C75C6  GBVM$trigger_52_interact$2b29caa   trigger_52_interact
     000C75EE  GBVM_END$trigger_52_interact$0b0   trigger_52_interact
     000C75EF  _trigger_6_interact                trigger_6_interact
     000C75F2  GBVM$trigger_6_interact$fb06dbeb   trigger_6_interact
     000C7603  GBVM$trigger_6_interact$5c5dd63f   trigger_6_interact
     000C7635  GBVM$trigger_6_interact$ac3a5492   trigger_6_interact
     000C7647  _trigger_60_interact               trigger_60_interact
     000C764A  GBVM$trigger_60_interact$662f448   trigger_60_interact
     000C7667  GBVM$trigger_60_interact$e6b30f4   trigger_60_interact
     000C768A  GBVM_END$trigger_60_interact$662   trigger_60_interact
     000C768B  _trigger_61_interact               trigger_61_interact
     000C768E  GBVM$trigger_61_interact$b568c91   trigger_61_interact
     000C76AB  GBVM$trigger_61_interact$eba794c   trigger_61_interact
     000C76CE  GBVM_END$trigger_61_interact$b56   trigger_61_interact
     000C76CF  _trigger_64_interact               trigger_64_interact
     000C76D2  GBVM$trigger_64_interact$c940d1b   trigger_64_interact
     000C76D2  GBVM$trigger_64_interact$e0c82fb   trigger_64_interact
     000C76EF  GBVM$trigger_64_interact$92e14a6   trigger_64_interact
     000C7712  GBVM_END$trigger_64_interact$c94   trigger_64_interact
     000C7713  _trigger_67_interact               trigger_67_interact
     000C7716  GBVM$trigger_67_interact$c8c7c2b   trigger_67_interact
     000C7733  GBVM$trigger_67_interact$4fee8a2   trigger_67_interact
     000C775F  GBVM_END$trigger_67_interact$c8c   trigger_67_interact
     000C7760  _trigger_68_interact               trigger_68_interact
     000C7763  GBVM$trigger_68_interact$83b723a   trigger_68_interact
     000C7780  GBVM$trigger_68_interact$a4d86b1   trigger_68_interact
     000C77AC  GBVM_END$trigger_68_interact$83b   trigger_68_interact
     000C77AD  _trigger_69_interact               trigger_69_interact
     000C77B0  GBVM$trigger_69_interact$05d4a3f   trigger_69_interact
     000C77CD  GBVM$trigger_69_interact$5f43dae   trigger_69_interact
     000C77F0  GBVM_END$trigger_69_interact$05d   trigger_69_interact
     000C77F1  _trigger_70_interact               trigger_70_interact
     000C77F4  GBVM$trigger_70_interact$def5e07   trigger_70_interact
     000C7811  GBVM$trigger_70_interact$b49af64   trigger_70_interact
     000C7834  GBVM_END$trigger_70_interact$def   trigger_70_interact
     000C7835  _trigger_71_interact               trigger_71_interact
     000C7838  GBVM$trigger_71_interact$8d5eed8   trigger_71_interact
ASxxxx Linker V03.00/V05.40 + sdld,  page 78.
Hexadecimal  [32-Bits]

Area                                    Addr        Size        Decimal Bytes (Attributes)
--------------------------------        ----        ----        ------- ----- ------------
_CODE_12                            000C4000    00004000 =       16384. bytes (REL,CON)

      Value  Global                              Global Defined In Module
      -----  --------------------------------   ------------------------
     000C7855  GBVM$trigger_71_interact$df66084   trigger_71_interact
     000C7880  GBVM_END$trigger_71_interact$8d5   trigger_71_interact
     000C7881  _trigger_72_interact               trigger_72_interact
     000C7884  GBVM$trigger_72_interact$37c13df   trigger_72_interact
     000C78A1  GBVM$trigger_72_interact$c337910   trigger_72_interact
     000C78C4  GBVM_END$trigger_72_interact$37c   trigger_72_interact
     000C78C5  _trigger_73_interact               trigger_73_interact
     000C78C8  GBVM$trigger_73_interact$524d64c   trigger_73_interact
     000C78E5  GBVM$trigger_73_interact$7281960   trigger_73_interact
     000C7901  GBVM_END$trigger_73_interact$524   trigger_73_interact
     000C7902  _trigger_74_interact               trigger_74_interact
     000C7905  GBVM$trigger_74_interact$b67e359   trigger_74_interact
     000C7922  GBVM$trigger_74_interact$716162e   trigger_74_interact
     000C7963  GBVM_END$trigger_74_interact$b67   trigger_74_interact
     000C7964  _trigger_75_interact               trigger_75_interact
     000C7967  GBVM$trigger_75_interact$5a6e8cd   trigger_75_interact
     000C7984  GBVM$trigger_75_interact$3bc0d03   trigger_75_interact
     000C79C5  GBVM_END$trigger_75_interact$5a6   trigger_75_interact
     000C79C6  _trigger_76_interact               trigger_76_interact
     000C79C9  GBVM$trigger_76_interact$3671f71   trigger_76_interact
     000C79E6  GBVM$trigger_76_interact$7d89b0b   trigger_76_interact
     000C7A02  GBVM_END$trigger_76_interact$367   trigger_76_interact
     000C7A03  _trigger_77_interact               trigger_77_interact
     000C7A06  GBVM$trigger_77_interact$2466acd   trigger_77_interact
     000C7A23  GBVM$trigger_77_interact$a7d682f   trigger_77_interact
     000C7A3F  GBVM_END$trigger_77_interact$246   trigger_77_interact
     000C7A40  _trigger_8_interact                trigger_8_interact
     000C7A43  GBVM$trigger_8_interact$98a665b9   trigger_8_interact
     000C7A60  GBVM$trigger_8_interact$6b358156   trigger_8_interact
     000C7A92  GBVM_END$trigger_8_interact$98a6   trigger_8_interact
     000C7A93  _trigger_82_interact               trigger_82_interact
     000C7A96  GBVM$trigger_82_interact$4a01377   trigger_82_interact
     000C7AAB  GBVM$trigger_82_interact$0dc87b1   trigger_82_interact
     000C7B0A  GBVM$trigger_82_interact$275d15d   trigger_82_interact
     000C7B0F  GBVM$trigger_82_interact$f2efccd   trigger_82_interact
     000C7B16  GBVM$trigger_82_interact$21fb78e   trigger_82_interact
     000C7B41  GBVM_END$trigger_82_interact$4a0   trigger_82_interact
     000C7B42  _trigger_83_interact               trigger_83_interact
     000C7B43  GBVM$trigger_83_interact$863613e   trigger_83_interact
     000C7BD7  _trigger_84_interact               trigger_84_interact
     000C7BD8  GBVM$trigger_84_interact$44ddd16   trigger_84_interact
     000C7C36  _trigger_85_interact               trigger_85_interact
     000C7C37  GBVM$trigger_85_interact$82abe67   trigger_85_interact
     000C7C91  _trigger_87_interact               trigger_87_interact
     000C7C94  GBVM$trigger_87_interact$3dbbfd0   trigger_87_interact
     000C7CB1  GBVM$trigger_87_interact$ab35d30   trigger_87_interact
     000C7CDE  GBVM_END$trigger_87_interact$3db   trigger_87_interact
     000C7CDF  _trigger_88_interact               trigger_88_interact
     000C7CE2  GBVM$trigger_88_interact$46d2758   trigger_88_interact
     000C7CFF  GBVM$trigger_88_interact$ca701be   trigger_88_interact
     000C7D2B  GBVM_END$trigger_88_interact$46d   trigger_88_interact
ASxxxx Linker V03.00/V05.40 + sdld,  page 79.
Hexadecimal  [32-Bits]

Area                                    Addr        Size        Decimal Bytes (Attributes)
--------------------------------        ----        ----        ------- ----- ------------
_CODE_12                            000C4000    00004000 =       16384. bytes (REL,CON)

      Value  Global                              Global Defined In Module
      -----  --------------------------------   ------------------------
     000C7D2C  _trigger_89_interact               trigger_89_interact
     000C7D2F  GBVM$trigger_89_interact$f2ffb09   trigger_89_interact
     000C7D4C  GBVM$trigger_89_interact$879f72e   trigger_89_interact
     000C7D6F  GBVM_END$trigger_89_interact$f2f   trigger_89_interact
     000C7D70  _trigger_9_interact                trigger_9_interact
     000C7D73  GBVM$trigger_9_interact$07369073   trigger_9_interact
     000C7D90  GBVM$trigger_9_interact$729e67d0   trigger_9_interact
     000C7DC2  GBVM_END$trigger_9_interact$0736   trigger_9_interact
     000C7DC3  _trigger_90_interact               trigger_90_interact
     000C7DC4  GBVM$trigger_90_interact$668d287   trigger_90_interact
     000C7E6D  _trigger_92_interact               trigger_92_interact
     000C7E6E  GBVM$trigger_92_interact$6e77b66   trigger_92_interact
     000C7ED2  _trigger_93_interact               trigger_93_interact
     000C7ED3  GBVM$trigger_93_interact$50d90b7   trigger_93_interact
     000C7F61  _trigger_94_interact               trigger_94_interact
     000C7F64  GBVM$trigger_94_interact$7e75e32   trigger_94_interact
     000C7F81  GBVM$trigger_94_interact$c995d3d   trigger_94_interact
     000C7FAD  GBVM_END$trigger_94_interact$7e7   trigger_94_interact
     000C7FAE  _trigger_95_interact               trigger_95_interact
     000C7FB1  GBVM$trigger_95_interact$5baf649   trigger_95_interact
     000C7FCE  GBVM$trigger_95_interact$58933c2   trigger_95_interact
     000C7FFF  GBVM_END$trigger_95_interact$5ba   trigger_95_interact
ASxxxx Linker V03.00/V05.40 + sdld,  page 80.
Hexadecimal  [32-Bits]

Area                                    Addr        Size        Decimal Bytes (Attributes)
--------------------------------        ----        ----        ------- ----- ------------
_HEADER_SIO0                        00000000    00000004 =           4. bytes (ABS,CON)

      Value  Global                              Global Defined In Module
      -----  --------------------------------   ------------------------
ASxxxx Linker V03.00/V05.40 + sdld,  page 81.
Hexadecimal  [32-Bits]

Area                                    Addr        Size        Decimal Bytes (Attributes)
--------------------------------        ----        ----        ------- ----- ------------
_HEADER_TIMER0                      00000000    00000004 =           4. bytes (ABS,CON)

      Value  Global                              Global Defined In Module
      -----  --------------------------------   ------------------------
ASxxxx Linker V03.00/V05.40 + sdld,  page 82.
Hexadecimal  [32-Bits]

Area                                    Addr        Size        Decimal Bytes (Attributes)
--------------------------------        ----        ----        ------- ----- ------------
_CODE_7                             00074000    00003FFE =       16382. bytes (REL,CON)

      Value  Global                              Global Defined In Module
      -----  --------------------------------   ------------------------
     00074000  _projectiles_init                  projectiles
     0007402F  _projectile_launch                 projectiles
     00074446  ___func_VM_GAMEBOY                 vm_gameboy
     00074446  _vm_set_sprites_visible            vm_gameboy
     0007445D  _vm_input_wait                     vm_gameboy
     00074486  _vm_context_prepare                vm_gameboy
     000744B1  _vm_input_attach                   vm_gameboy
     000744C7  _vm_input_detach                   vm_gameboy
     000744DB  _vm_input_get                      vm_gameboy
     0007450F  _vm_fade                           vm_gameboy
     0007453F  _vm_timer_prepare                  vm_gameboy
     0007456A  _vm_timer_set                      vm_gameboy
     00074585  _vm_timer_stop                     vm_gameboy
     00074599  _vm_timer_reset                    vm_gameboy
     000745B0  _vm_get_tile_xy                    vm_gameboy
     00074686  _vm_replace_tile                   vm_gameboy
     00074731  _vm_poll                           vm_gameboy
     00074803  _vm_set_sprite_mode                vm_gameboy
     00074817  _vm_replace_tile_xy                vm_gameboy
     000749F7  _vm_rumble                         vm_gameboy
     00074A17  _vm_load_tileset                   vm_gameboy
     00074AE8  ___func_bg_new_folder_gate_close   bg_new_folder_gate_close_til
     00074AE8  _bg_new_folder_gate_close_tilema   bg_new_folder_gate_close_til
     00074D40  ___func_bg_new_folder_greathall_   bg_new_folder_greathall_tile
     00074D40  _bg_new_folder_greathall_tileset   bg_new_folder_greathall_tile
     000753B2  ___func_bg_new_folder_south_dam1   bg_new_folder_south_dam1_til
     000753B2  _bg_new_folder_south_dam1_tilese   bg_new_folder_south_dam1_til
     00075924  ___func_bg_new_folder_top_down_c   bg_new_folder_top_down_c_1__
     00075924  _bg_new_folder_top_down_c_1__til   bg_new_folder_top_down_c_1__
     00075ED6  ___func_bg_new_folder_top_down_k   bg_new_folder_top_down_kitc_
     00075ED6  _bg_new_folder_top_down_kitc_til   bg_new_folder_top_down_kitc_
     000764C8  ___func_bg_new_folder_top_down_t   bg_new_folder_top_down_towe_
     000764C8  _bg_new_folder_top_down_towe_0_t   bg_new_folder_top_down_towe_
     00076ABA  ___func_bg_stars_tilemap_attr      bg_stars_tilemap_attr
     00076ABA  _bg_stars_tilemap_attr             bg_stars_tilemap_attr
     00076EBA  ___func_scene_17_collisions        scene_17_collisions
     00076EBA  _scene_17_collisions               scene_17_collisions
     0007736A  ___func_scene_22_sprites           scene_22_sprites
     0007736A  _scene_22_sprites                  scene_22_sprites
     0007736D  _scene_30_init                     scene_30_init
     00077370  GBVM$scene_30_init$autofade$9f68   scene_30_init
     00077386  GBVM$scene_30_init$d11e11fb_0366   scene_30_init
     000773A3  GBVM$scene_30_init$613b4c3d_8321   scene_30_init
     000773B7  GBVM$scene_30_init$3f581b68_e155   scene_30_init
     000773B7  GBVM_END$scene_30_init$d11e11fb_   scene_30_init
     00077420  GBVM$scene_30_init$788bc2a1_3342   scene_30_init
     00077432  GBVM$scene_30_init$e0ab8604_dfbd   scene_30_init
     0007744A  GBVM$scene_30_init$8f5fba26_729f   scene_30_init
     0007745A  GBVM$scene_30_init$ff3f06ad_9da9   scene_30_init
     0007747F  GBVM$scene_30_init$77ef479d_a481   scene_30_init
ASxxxx Linker V03.00/V05.40 + sdld,  page 83.
Hexadecimal  [32-Bits]

Area                                    Addr        Size        Decimal Bytes (Attributes)
--------------------------------        ----        ----        ------- ----- ------------
_CODE_7                             00074000    00003FFE =       16382. bytes (REL,CON)

      Value  Global                              Global Defined In Module
      -----  --------------------------------   ------------------------
     0007747F  GBVM_END$scene_30_init$8f5fba26_   scene_30_init
     000774A5  GBVM$scene_30_init$3f002172_1cec   scene_30_init
     000774B8  GBVM$scene_30_init$8574597a_6700   scene_30_init
     000774ED  GBVM$scene_30_init$d0b8aa28_421e   scene_30_init
     00077556  GBVM$scene_30_init$2347f366_7688   scene_30_init
     0007755B  GBVM$scene_30_init$c3605407_6518   scene_30_init
     0007756F  GBVM_END$scene_30_init$3f002172_   scene_30_init
     00077572  GBVM$scene_30_init$9fc38840_d7f8   scene_30_init
     00077587  GBVM$scene_30_init$2085a9b3_6ff9   scene_30_init
     000775B8  GBVM$scene_30_init$520f266e_faae   scene_30_init
     000775BC  GBVM$scene_30_init$dce6b047_17af   scene_30_init
     000775E0  GBVM_END$scene_30_init$9fc38840_   scene_30_init
     000775E3  GBVM$scene_30_init$90494913_3e8c   scene_30_init
     00077637  GBVM$scene_30_init$d56b467d_5d75   scene_30_init
     0007764C  GBVM$scene_30_init$cace04c0_11c1   scene_30_init
     00077664  GBVM$scene_30_init$4396db1d_e124   scene_30_init
     0007768A  GBVM$scene_30_init$b79621a2_ce05   scene_30_init
     000776C4  GBVM$scene_30_init$cac6c2c9_2c2a   scene_30_init
     0007772D  GBVM_END$scene_30_init$cace04c0_   scene_30_init
     00077730  GBVM$scene_30_init$6affd375_0c92   scene_30_init
     00077761  GBVM$scene_30_init$82310924_f91a   scene_30_init
     0007779B  GBVM$scene_30_init$f242ec17_6fc0   scene_30_init
     00077804  GBVM_END$scene_30_init$d56b467d_   scene_30_init
     00077807  GBVM$scene_30_init$3d6c309a_7a4f   scene_30_init
     0007782F  GBVM$scene_30_init$26b9bb04_c5bb   scene_30_init
     00077872  GBVM$scene_30_init$420cb7f6_2079   scene_30_init
     0007788A  GBVM$scene_30_init$b9067006_e26b   scene_30_init
     000778BC  GBVM$scene_30_init$7874b058_fbc5   scene_30_init
     000778BC  GBVM_END$scene_30_init$420cb7f6_   scene_30_init
     00077911  GBVM_END$scene_30_init$e0ab8604_   scene_30_init
     00077914  GBVM$scene_30_init$935ebda8_bbf6   scene_30_init
     00077914  GBVM_END$scene_30_init$788bc2a1_   scene_30_init
     00077928  GBVM$scene_30_init$4306b2c5_fd76   scene_30_init
     0007793C  GBVM_END$scene_30_init$935ebda8_   scene_30_init
     0007793D  _topdown_init                      topdown
     000779D4  _topdown_update                    topdown

ASxxxx Linker V03.00/V05.40 + sdld,  page 84.
Hexadecimal  [32-Bits]

Area                                    Addr        Size        Decimal Bytes (Attributes)
--------------------------------        ----        ----        ------- ----- ------------
_CODE_6                             00064000    00003FFF =       16383. bytes (REL,CON)

      Value  Global                              Global Defined In Module
      -----  --------------------------------   ------------------------
     00064000  _scroll_init                       scroll
     0006402A  _scroll_reset                      scroll
     0006404A  _scroll_update                     scroll
     00064181  _scroll_viewport                   scroll
     0006461A  _scroll_repaint                    scroll
     0006462A  _scroll_render_rows                scroll
     000646C0  _scroll_queue_row                  scroll
     000646E2  _scroll_queue_col                  scroll
     0006472D  ___func_VM_UI                      vm_ui
     0006472D  _vm_display_text                   vm_ui
     0006479B  _vm_switch_text_layer              vm_ui
     000647B5  _vm_overlay_setpos                 vm_ui
     000647CF  _vm_overlay_wait                   vm_ui
     0006485F  _vm_overlay_move_to                vm_ui
     000648A3  _vm_overlay_set_scroll             vm_ui
     000648DC  _vm_overlay_clear                  vm_ui
     000649AE  _vm_overlay_show                   vm_ui
     000649FC  _vm_choice                         vm_ui
     00064B17  _vm_set_font                       vm_ui
     00064B46  _vm_overlay_scroll                 vm_ui
     00064BA7  _vm_overlay_set_submap             vm_ui
     00064C13  _vm_overlay_set_submap_ex          vm_ui
     00064D14  _vm_overlay_set_map                vm_ui
     00064E73  _vm_set_text_sound                 vm_ui
     00064E8C  ___func_bg_mapv2_tileset           bg_mapv2_tileset
     00064E8C  _bg_mapv2_tileset                  bg_mapv2_tileset
     000655AE  ___func_bg_new_folder_gate_close   bg_new_folder_gate_close_til
     000655AE  _bg_new_folder_gate_close_tilese   bg_new_folder_gate_close_til
     00065D50  ___func_bg_new_folder_gate_tiles   bg_new_folder_gate_tileset
     00065D50  _bg_new_folder_gate_tileset        bg_new_folder_gate_tileset
     000664F2  ___func_bg_new_folder_kitchen_to   bg_new_folder_kitchen_tower_
     000664F2  _bg_new_folder_kitchen_tower_0_t   bg_new_folder_kitchen_tower_
     000669A2  ___func_bg_new_folder_top_down_c   bg_new_folder_top_down_c_2_t
     000669A2  _bg_new_folder_top_down_c_2_tile   bg_new_folder_top_down_c_2_t
     00067144  ___func_bg_new_folder_top_down_t   bg_new_folder_top_down_towe_
     00067144  _bg_new_folder_top_down_towe_til   bg_new_folder_top_down_towe_
     000678D6  ___func_sprite_animated_animals_   sprite_animated_animals_cro_
     000678D6  _sprite_animated_animals_cro_0_m   sprite_animated_animals_cro_
     000678E2  _sprite_animated_animals_cro_0_m   sprite_animated_animals_cro_
     000678EE  _sprite_animated_animals_cro_0_m   sprite_animated_animals_cro_
     000678FA  _sprite_animated_animals_cro_0_m   sprite_animated_animals_cro_
     00067906  _sprite_animated_animals_cro_0_m   sprite_animated_animals_cro_
     0006790E  _sprite_animated_animals_cro_0_a   sprite_animated_animals_cro_
     0006791E  _sprite_animated_animals_cro_0_a   sprite_animated_animals_cro_
     00067920  _sprite_animated_animals_cro_0     sprite_animated_animals_cro_
     00067933  _adventure_init                    adventure
     00067948  _adventure_update                  adventure

ASxxxx Linker V03.00/V05.40 + sdld,  page 85.
Hexadecimal  [32-Bits]

Area                                    Addr        Size        Decimal Bytes (Attributes)
--------------------------------        ----        ----        ------- ----- ------------
_CODE_1                             00014000    00004000 =       16384. bytes (REL,CON)

      Value  Global                              Global Defined In Module
      -----  --------------------------------   ------------------------
     00014000  _ui_swap_tiles                     
     0001404A  _ui_print_make_mask_lr             
     00014066  _ui_print_make_mask_rl             
     00014082  _ui_init                           ui
     00014153  _ui_load_tiles                     ui
     000141AA  _ui_draw_frame                     ui
     00014244  _ui_print_reset                    ui
     00014295  _ui_set_start_tile                 ui
     000142C1  _ui_print_render                   ui
     00014557  _ui_draw_text_buffer_char          ui
     00014A3B  _ui_run_menu                       ui
     00014C12  _ui_run_modal                      ui
     00014CCC  ___func_VM_SGB                     vm_sgb
     00014CCC  ___func_bg_logos_and_endings_ahh   bg_logos_and_endings_ahhhlo_
     00014CCC  _bg_logos_and_endings_ahhhlo_til   bg_logos_and_endings_ahhhlo_
     0001634E  ___func_bg_logos_and_endings_ahh   bg_logos_and_endings_ahhhlo
     0001634E  _bg_logos_and_endings_ahhhlo       bg_logos_and_endings_ahhhlo
     0001635C  ___func_bg_new_folder_top_down_t   bg_new_folder_top_down_towe_
     0001635C  _bg_new_folder_top_down_towe_1_t   bg_new_folder_top_down_towe_
     0001698E  _platform_init                     platform
     00016B08  _platform_update                   platform
ASxxxx Linker V03.00/V05.40 + sdld,  page 86.
Hexadecimal  [32-Bits]

Area                                    Addr        Size        Decimal Bytes (Attributes)
--------------------------------        ----        ----        ------- ----- ------------
_CODE_10                            000A4000    00003FFE =       16382. bytes (REL,CON)

      Value  Global                              Global Defined In Module
      -----  --------------------------------   ------------------------
     000A4000  _set_sgb_border                    sgb_border
     000A41EA  ___func_VM_PALETTE                 vm_palette
     000A41EA  _vm_load_palette                   vm_palette
     000A4393  _actor_0_interact                  actor_0_interact
     000A4396  GBVM$actor_0_interact$c6a64365_3   actor_0_interact
     000A43A6  GBVM$actor_0_interact$00e91bee_0   actor_0_interact
     000A4438  GBVM$actor_0_interact$79d8bdda_1   actor_0_interact
     000A4440  GBVM$actor_0_interact$48ed8c31_f   actor_0_interact
     000A44F8  GBVM$actor_0_interact$8bdcd5c8_3   actor_0_interact
     000A44F8  GBVM_END$actor_0_interact$c6a643   actor_0_interact
     000A4514  GBVM$actor_0_interact$e9a76ec1_2   actor_0_interact
     000A4574  GBVM_END$actor_0_interact$8bdcd5   actor_0_interact
     000A4575  _actor_3_interact                  actor_3_interact
     000A4588  GBVM$actor_3_interact$558d99f5_4   actor_3_interact
     000A45A4  GBVM$actor_3_interact$9dbf3501_9   actor_3_interact
     000A45B9  GBVM$actor_3_interact$3b4a1f4a_5   actor_3_interact
     000A464F  GBVM$actor_3_interact$ac5617b4_e   actor_3_interact
     000A46BE  GBVM$actor_3_interact$ced7a8df_b   actor_3_interact
     000A46D9  GBVM$actor_3_interact$b7186986_a   actor_3_interact
     000A46DD  GBVM_END$actor_3_interact$9dbf35   actor_3_interact
     000A46DF  _actor_4_interact                  actor_4_interact
     000A46E2  GBVM$actor_4_interact$e6ad538d_a   actor_4_interact
     000A46F7  GBVM$actor_4_interact$0aa92bae_0   actor_4_interact
     000A4791  GBVM$actor_4_interact$aa6da3e7_b   actor_4_interact
     000A47A9  GBVM$actor_4_interact$64ac026d_1   actor_4_interact
     000A47AE  GBVM$actor_4_interact$01afdc5b_2   actor_4_interact
     000A4852  GBVM_END$actor_4_interact$aa6da3   actor_4_interact
     000A4855  GBVM$actor_4_interact$bf35a9ea_4   actor_4_interact
     000A48FE  GBVM_END$actor_4_interact$e6ad53   actor_4_interact
     000A48FF  ___func_bg_logos_and_endings_ahh   bg_logos_and_endings_ahhhlo_
     000A48FF  _bg_logos_and_endings_ahhhlo_til   bg_logos_and_endings_ahhhlo_
     000A4A67  ___func_bg_logos_and_endings_ahh   bg_logos_and_endings_ahhhlo_
     000A4A67  _bg_logos_and_endings_ahhhlo_til   bg_logos_and_endings_ahhhlo_
     000A4BCF  ___func_bg_logos_and_endings_end   bg_logos_and_endings_ending_
     000A4BCF  _bg_logos_and_endings_ending_til   bg_logos_and_endings_ending_
     000A4D37  ___func_bg_logos_and_endings_end   bg_logos_and_endings_ending_
     000A4D37  _bg_logos_and_endings_ending_til   bg_logos_and_endings_ending_
     000A4E9F  ___func_bg_mapv2_tilemap_attr      bg_mapv2_tilemap_attr
     000A4E9F  _bg_mapv2_tilemap_attr             bg_mapv2_tilemap_attr
     000A5007  ___func_bg_mapv2_tilemap           bg_mapv2_tilemap
     000A5007  _bg_mapv2_tilemap                  bg_mapv2_tilemap
     000A516F  ___func_bg_new_folder_se1_tilema   bg_new_folder_se1_tilemap_at
     000A516F  _bg_new_folder_se1_tilemap_attr    bg_new_folder_se1_tilemap_at
     000A538B  ___func_bg_new_folder_se1_tilema   bg_new_folder_se1_tilemap
     000A538B  _bg_new_folder_se1_tilemap         bg_new_folder_se1_tilemap
     000A55A7  ___func_bg_new_folder_se2_tilema   bg_new_folder_se2_tilemap_at
     000A55A7  _bg_new_folder_se2_tilemap_attr    bg_new_folder_se2_tilemap_at
     000A570F  ___func_bg_new_folder_se2_tilema   bg_new_folder_se2_tilemap
     000A570F  _bg_new_folder_se2_tilemap         bg_new_folder_se2_tilemap
     000A5877  ___func_bg_new_folder_southwest1   bg_new_folder_southwest1_til
ASxxxx Linker V03.00/V05.40 + sdld,  page 87.
Hexadecimal  [32-Bits]

Area                                    Addr        Size        Decimal Bytes (Attributes)
--------------------------------        ----        ----        ------- ----- ------------
_CODE_10                            000A4000    00003FFE =       16382. bytes (REL,CON)

      Value  Global                              Global Defined In Module
      -----  --------------------------------   ------------------------
     000A5877  _bg_new_folder_southwest1_tilema   bg_new_folder_southwest1_til
     000A5A07  ___func_bg_new_folder_southwest1   bg_new_folder_southwest1_til
     000A5A07  _bg_new_folder_southwest1_tilema   bg_new_folder_southwest1_til
     000A5B97  ___func_bg_new_folder_southwest2   bg_new_folder_southwest2_til
     000A5B97  _bg_new_folder_southwest2_tilema   bg_new_folder_southwest2_til
     000A5D27  ___func_bg_new_folder_southwest2   bg_new_folder_southwest2_til
     000A5D27  _bg_new_folder_southwest2_tilema   bg_new_folder_southwest2_til
     000A5EB7  ___func_bg_new_folder_top_down_c   bg_new_folder_top_down_c_1__
     000A5EB7  _bg_new_folder_top_down_c_1__til   bg_new_folder_top_down_c_1__
     000A601F  ___func_bg_new_folder_top_down_c   bg_new_folder_top_down_c_1__
     000A601F  _bg_new_folder_top_down_c_1__til   bg_new_folder_top_down_c_1__
     000A6187  ___func_bg_new_folder_top_down_c   bg_new_folder_top_down_c_1__
     000A6187  _bg_new_folder_top_down_c_1__til   bg_new_folder_top_down_c_1__
     000A62EF  ___func_bg_new_folder_top_down_c   bg_new_folder_top_down_c_2_t
     000A62EF  _bg_new_folder_top_down_c_2_tile   bg_new_folder_top_down_c_2_t
     000A647F  ___func_bg_new_folder_top_down_c   bg_new_folder_top_down_c_2_t
     000A647F  _bg_new_folder_top_down_c_2_tile   bg_new_folder_top_down_c_2_t
     000A660F  ___func_bg_new_folder_top_down_c   bg_new_folder_top_down_c_2_t
     000A660F  _bg_new_folder_top_down_c_2_tile   bg_new_folder_top_down_c_2_t
     000A679F  ___func_bg_new_folder_top_down_c   bg_new_folder_top_down_c_2_t
     000A679F  _bg_new_folder_top_down_c_2_tile   bg_new_folder_top_down_c_2_t
     000A692F  ___func_bg_new_folder_top_down_c   bg_new_folder_top_down_c_2_t
     000A692F  _bg_new_folder_top_down_c_2_tile   bg_new_folder_top_down_c_2_t
     000A6B41  ___func_bg_new_folder_top_down_i   bg_new_folder_top_down_inne_
     000A6B41  _bg_new_folder_top_down_inne_til   bg_new_folder_top_down_inne_
     000A6CD3  ___func_bg_new_folder_top_down_t   bg_new_folder_top_down_towe_
     000A6CD3  _bg_new_folder_top_down_towe_til   bg_new_folder_top_down_towe_
     000A6ED5  ___func_scene_10_collisions        scene_10_collisions
     000A6ED5  _scene_10_collisions               scene_10_collisions
     000A7065  ___func_scene_18_collisions        scene_18_collisions
     000A7065  _scene_18_collisions               scene_18_collisions
     000A71F5  ___func_scene_23_collisions        scene_23_collisions
     000A71F5  _scene_23_collisions               scene_23_collisions
     000A7385  ___func_scene_25_collisions        scene_25_collisions
     000A7385  _scene_25_collisions               scene_25_collisions
     000A7515  ___func_scene_27_collisions        scene_27_collisions
     000A7515  _scene_27_collisions               scene_27_collisions
     000A76A5  _scene_28_init                     scene_28_init
     000A76A8  GBVM$scene_28_init$522a430f_2c63   scene_28_init
     000A76B0  GBVM$scene_28_init$autofade$d605   scene_28_init
     000A76C6  GBVM$scene_28_init$66cfc7a2_9828   scene_28_init
     000A7822  GBVM$scene_28_init$652d43e6_f4d4   scene_28_init
     000A7855  _scene_7_init                      scene_7_init
     000A7858  GBVM$scene_7_init$e658fe1c_33c6_   scene_7_init
     000A786D  GBVM$scene_7_init$7688bdf4_0781_   scene_7_init
     000A7871  GBVM$scene_7_init$df559e54_edd3_   scene_7_init
     000A7875  GBVM$scene_7_init$2f534887_a4d5_   scene_7_init
     000A7875  GBVM_END$scene_7_init$e658fe1c_3   scene_7_init
     000A7879  GBVM$scene_7_init$autofade$6a398   scene_7_init
     000A788F  GBVM$scene_7_init$a2da536b_a646_   scene_7_init
     000A78DE  GBVM$scene_7_init$b2ce1fc5_3824_   scene_7_init
ASxxxx Linker V03.00/V05.40 + sdld,  page 88.
Hexadecimal  [32-Bits]

Area                                    Addr        Size        Decimal Bytes (Attributes)
--------------------------------        ----        ----        ------- ----- ------------
_CODE_10                            000A4000    00003FFE =       16382. bytes (REL,CON)

      Value  Global                              Global Defined In Module
      -----  --------------------------------   ------------------------
     000A78F7  GBVM$scene_7_init$fedbaa2d_d66f_   scene_7_init
     000A792C  GBVM$scene_7_init$84346841_0c4c_   scene_7_init
     000A795E  GBVM_END$scene_7_init$b2ce1fc5_3   scene_7_init
     000A795F  ___func_scene_9_collisions         scene_9_collisions
     000A795F  _scene_9_collisions                scene_9_collisions
     000A7B7B  ___func_sprite_animated_animals_   sprite_animated_animals_sea_
     000A7B7B  _sprite_animated_animals_sea_til   sprite_animated_animals_sea_
     000A7CFD  _trigger_86_interact               trigger_86_interact
     000A7D00  GBVM$trigger_86_interact$aa4be40   trigger_86_interact
     000A7D19  GBVM$trigger_86_interact$ceff54b   trigger_86_interact
     000A7D8B  GBVM$trigger_86_interact$d8e9a06   trigger_86_interact
     000A7DA3  GBVM$trigger_86_interact$c9e4bed   trigger_86_interact
     000A7E1E  GBVM$trigger_86_interact$aae1e36   trigger_86_interact
     000A7E23  GBVM$trigger_86_interact$87e265d   trigger_86_interact
     000A7E27  GBVM_END$trigger_86_interact$d8e   trigger_86_interact
     000A7E2A  GBVM$trigger_86_interact$5f1a0bc   trigger_86_interact
     000A7E84  GBVM_END$trigger_86_interact$aa4   trigger_86_interact
     000A7E85  _trigger_96_interact               trigger_96_interact
     000A7E88  GBVM$trigger_96_interact$d0e99a3   trigger_96_interact
     000A7E9D  GBVM$trigger_96_interact$2408fdf   trigger_96_interact
     000A7F5E  GBVM$trigger_96_interact$a0bd39b   trigger_96_interact
     000A7F63  GBVM$trigger_96_interact$81d14ca   trigger_96_interact
     000A7F73  GBVM$trigger_96_interact$aa5ca18   trigger_96_interact
     000A7F8B  GBVM_END$trigger_96_interact$81d   trigger_96_interact
     000A7F8E  GBVM$trigger_96_interact$dbf20de   trigger_96_interact
     000A7FFD  GBVM_END$trigger_96_interact$d0e   trigger_96_interact

ASxxxx Linker V03.00/V05.40 + sdld,  page 89.
Hexadecimal  [32-Bits]

Area                                    Addr        Size        Decimal Bytes (Attributes)
--------------------------------        ----        ----        ------- ----- ------------
_CODE_11                            000B4000    00004000 =       16384. bytes (REL,CON)

      Value  Global                              Global Defined In Module
      -----  --------------------------------   ------------------------
     000B4000  ___func_VM_MATH                    vm_math
     000B4000  _vm_sin_scale                      vm_math
     000B409C  _vm_cos_scale                      vm_math
     000B413A  ___func_VM_MUSIC                   vm_music
     000B413A  _vm_music_play                     vm_music
     000B4187  _vm_music_stop                     vm_music
     000B41A9  _vm_music_mute                     vm_music
     000B41E7  _vm_music_routine                  vm_music
     000B420E  _vm_music_setpos                   vm_music
     000B4214  _vm_sound_mastervol                vm_music
     000B421A  _vm_sfx_play                       vm_music
     000B428D  _actor_2_interact                  actor_2_interact
     000B4290  GBVM$actor_2_interact$97970f38_5   actor_2_interact
     000B42A1  GBVM$actor_2_interact$e2d24f7b_4   actor_2_interact
     000B42AC  GBVM$actor_2_interact$7efd6a08_5   actor_2_interact
     000B4383  GBVM$actor_2_interact$2eaa8944_2   actor_2_interact
     000B438E  GBVM$actor_2_interact$834de833_0   actor_2_interact
     000B43AF  GBVM_END$actor_2_interact$97970f   actor_2_interact
     000B43B0  _actor_5_interact                  actor_5_interact
     000B43B3  GBVM$actor_5_interact$5cc1fb32_3   actor_5_interact
     000B43C3  GBVM$actor_5_interact$c5c54453_3   actor_5_interact
     000B43CE  GBVM$actor_5_interact$29e52551_7   actor_5_interact
     000B445D  GBVM$actor_5_interact$e1c65782_7   actor_5_interact
     000B4465  GBVM$actor_5_interact$30655216_1   actor_5_interact
     000B4504  GBVM_END$actor_5_interact$5cc1fb   actor_5_interact
     000B4505  ___func_bg_mapv2                   bg_mapv2
     000B4505  _bg_mapv2                          bg_mapv2
     000B4513  ___func_bg_new_folder_top_down_c   bg_new_folder_top_down_c_1__
     000B4513  _bg_new_folder_top_down_c_1__til   bg_new_folder_top_down_c_1__
     000B467B  ___func_bg_new_folder_top_down_i   bg_new_folder_top_down_inne_
     000B467B  _bg_new_folder_top_down_inne_til   bg_new_folder_top_down_inne_
     000B47E3  ___func_bg_new_folder_top_down_i   bg_new_folder_top_down_inne_
     000B47E3  _bg_new_folder_top_down_inne_til   bg_new_folder_top_down_inne_
     000B494B  ___func_bg_new_folder_top_down_k   bg_new_folder_top_down_kitc_
     000B494B  _bg_new_folder_top_down_kitc_til   bg_new_folder_top_down_kitc_
     000B4AB3  ___func_bg_new_folder_top_down_k   bg_new_folder_top_down_kitc_
     000B4AB3  _bg_new_folder_top_down_kitc_til   bg_new_folder_top_down_kitc_
     000B4C1B  ___func_bg_new_folder_top_down_k   bg_new_folder_top_down_kitc_
     000B4C1B  _bg_new_folder_top_down_kitc_til   bg_new_folder_top_down_kitc_
     000B4D83  ___func_bg_new_folder_top_down_k   bg_new_folder_top_down_kitc_
     000B4D83  _bg_new_folder_top_down_kitc_til   bg_new_folder_top_down_kitc_
     000B4EEB  ___func_bg_new_folder_top_down_t   bg_new_folder_top_down_towe_
     000B4EEB  _bg_new_folder_top_down_towe_0_t   bg_new_folder_top_down_towe_
     000B5053  ___func_bg_new_folder_top_down_t   bg_new_folder_top_down_towe_
     000B5053  _bg_new_folder_top_down_towe_0_t   bg_new_folder_top_down_towe_
     000B51BB  ___func_bg_new_folder_top_down_t   bg_new_folder_top_down_towe_
     000B51BB  _bg_new_folder_top_down_towe_0_t   bg_new_folder_top_down_towe_
     000B5323  ___func_bg_new_folder_top_down_t   bg_new_folder_top_down_towe_
     000B5323  _bg_new_folder_top_down_towe_0_t   bg_new_folder_top_down_towe_
     000B548B  ___func_bg_new_folder_top_down_t   bg_new_folder_top_down_towe_
ASxxxx Linker V03.00/V05.40 + sdld,  page 90.
Hexadecimal  [32-Bits]

Area                                    Addr        Size        Decimal Bytes (Attributes)
--------------------------------        ----        ----        ------- ----- ------------
_CODE_11                            000B4000    00004000 =       16384. bytes (REL,CON)

      Value  Global                              Global Defined In Module
      -----  --------------------------------   ------------------------
     000B548B  _bg_new_folder_top_down_towe_1_t   bg_new_folder_top_down_towe_
     000B55F3  ___func_bg_new_folder_top_down_t   bg_new_folder_top_down_towe_
     000B55F3  _bg_new_folder_top_down_towe_1_t   bg_new_folder_top_down_towe_
     000B575B  ___func_bg_new_folder_top_down_t   bg_new_folder_top_down_towe_
     000B575B  _bg_new_folder_top_down_towe_1_t   bg_new_folder_top_down_towe_
     000B58C3  ___func_bg_new_folder_top_down_t   bg_new_folder_top_down_towe_
     000B58C3  _bg_new_folder_top_down_towe_1_t   bg_new_folder_top_down_towe_
     000B5A2B  ___func_bg_new_folder_top_down_t   bg_new_folder_top_down_towe_
     000B5A2B  _bg_new_folder_top_down_towe_2_t   bg_new_folder_top_down_towe_
     000B5B93  ___func_bg_new_folder_top_down_t   bg_new_folder_top_down_towe_
     000B5B93  _bg_new_folder_top_down_towe_2_t   bg_new_folder_top_down_towe_
     000B5CFB  ___func_bg_new_folder_top_down_t   bg_new_folder_top_down_towe_
     000B5CFB  _bg_new_folder_top_down_towe_til   bg_new_folder_top_down_towe_
     000B5E63  ___func_bg_new_folder_top_down_t   bg_new_folder_top_down_towe_
     000B5E63  _bg_new_folder_top_down_towe_til   bg_new_folder_top_down_towe_
     000B5FCB  ___func_bg_new_folder_top_down_t   bg_new_folder_top_down_towe_
     000B5FCB  _bg_new_folder_top_down_towe_til   bg_new_folder_top_down_towe_
     000B6133  ___func_bg_new_folder_top_down_t   bg_new_folder_top_down_towe_
     000B6133  _bg_new_folder_top_down_towe_til   bg_new_folder_top_down_towe_
     000B629B  ___func_scene_0_actors             scene_0_actors
     000B629B  _scene_0_actors                    scene_0_actors
     000B63D3  ___func_scene_0_collisions         scene_0_collisions
     000B63D3  _scene_0_collisions                scene_0_collisions
     000B653B  ___func_scene_1_collisions         scene_1_collisions
     000B653B  _scene_1_collisions                scene_1_collisions
     000B66A3  ___func_scene_16_collisions        scene_16_collisions
     000B66A3  _scene_16_collisions               scene_16_collisions
     000B680B  ___func_scene_19_collisions        scene_19_collisions
     000B680B  _scene_19_collisions               scene_19_collisions
     000B6973  ___func_scene_2_collisions         scene_2_collisions
     000B6973  _scene_2_collisions                scene_2_collisions
     000B6ADB  ___func_scene_20_actors            scene_20_actors
     000B6ADB  _scene_20_actors                   scene_20_actors
     000B6C13  ___func_scene_20_collisions        scene_20_collisions
     000B6C13  _scene_20_collisions               scene_20_collisions
     000B6D7B  ___func_scene_21_actors            scene_21_actors
     000B6D7B  _scene_21_actors                   scene_21_actors
     000B6EB3  ___func_scene_21_collisions        scene_21_collisions
     000B6EB3  _scene_21_collisions               scene_21_collisions
     000B701B  ___func_scene_22_collisions        scene_22_collisions
     000B701B  _scene_22_collisions               scene_22_collisions
     000B7183  ___func_scene_24_actors            scene_24_actors
     000B7183  _scene_24_actors                   scene_24_actors
     000B72BB  ___func_scene_24_collisions        scene_24_collisions
     000B72BB  _scene_24_collisions               scene_24_collisions
     000B7423  ___func_scene_26_collisions        scene_26_collisions
     000B7423  _scene_26_collisions               scene_26_collisions
     000B758B  ___func_scene_28_collisions        scene_28_collisions
     000B758B  _scene_28_collisions               scene_28_collisions
     000B76F3  ___func_scene_29_collisions        scene_29_collisions
     000B76F3  _scene_29_collisions               scene_29_collisions
ASxxxx Linker V03.00/V05.40 + sdld,  page 91.
Hexadecimal  [32-Bits]

Area                                    Addr        Size        Decimal Bytes (Attributes)
--------------------------------        ----        ----        ------- ----- ------------
_CODE_11                            000B4000    00004000 =       16384. bytes (REL,CON)

      Value  Global                              Global Defined In Module
      -----  --------------------------------   ------------------------
     000B785B  ___func_scene_31_collisions        scene_31_collisions
     000B785B  _scene_31_collisions               scene_31_collisions
     000B79C3  ___func_scene_32_collisions        scene_32_collisions
     000B79C3  _scene_32_collisions               scene_32_collisions
     000B7B2B  ___func_sprite_actor_animated_ti   sprite_actor_animated_tilese
     000B7B2B  _sprite_actor_animated_tileset     sprite_actor_animated_tilese
     000B7C6D  _trigger_113_interact              trigger_113_interact
     000B7C6E  GBVM$trigger_113_interact$e8b801   trigger_113_interact
     000B7DAF  _trigger_91_interact               trigger_91_interact
     000B7DB2  GBVM$trigger_91_interact$6c825dc   trigger_91_interact
     000B7DC6  GBVM$trigger_91_interact$32a6214   trigger_91_interact
     000B7E3A  GBVM$trigger_91_interact$90b4ab6   trigger_91_interact
     000B7E3F  GBVM$trigger_91_interact$3cafcde   trigger_91_interact
     000B7E4F  GBVM$trigger_91_interact$d499150   trigger_91_interact
     000B7E67  GBVM$trigger_91_interact$f07414b   trigger_91_interact
     000B7E67  GBVM_END$trigger_91_interact$3ca   trigger_91_interact
     000B7E67  GBVM_END$trigger_91_interact$6c8   trigger_91_interact
     000B7EDB  _trigger_99_interact               trigger_99_interact
     000B7EDE  GBVM$trigger_99_interact$9d725af   trigger_99_interact
     000B7EEF  GBVM$trigger_99_interact$2736e22   trigger_99_interact
     000B7F03  GBVM$trigger_99_interact$1468238   trigger_99_interact
     000B7F5C  GBVM$trigger_99_interact$e4fb767   trigger_99_interact
     000B7F61  GBVM$trigger_99_interact$02beb7a   trigger_99_interact
     000B7F71  GBVM$trigger_99_interact$beee0eb   trigger_99_interact
     000B7F72  GBVM$trigger_99_interact$8e0c859   trigger_99_interact
     000B7F8A  GBVM_END$trigger_99_interact$02b   trigger_99_interact
     000B7F8A  GBVM_END$trigger_99_interact$273   trigger_99_interact
     000B7F8D  GBVM$trigger_99_interact$07645a3   trigger_99_interact
     000B7FB7  GBVM$trigger_99_interact$4923951   trigger_99_interact
     000B7FB7  GBVM_END$trigger_99_interact$9d7   trigger_99_interact
     000B7FD3  GBVM$trigger_99_interact$36a9eec   trigger_99_interact
     000B7FFF  GBVM_END$trigger_99_interact$492   trigger_99_interact

ASxxxx Linker V03.00/V05.40 + sdld,  page 92.
Hexadecimal  [32-Bits]

Area                                    Addr        Size        Decimal Bytes (Attributes)
--------------------------------        ----        ----        ------- ----- ------------
_CODE_9                             00094000    00003FFF =       16383. bytes (REL,CON)

      Value  Global                              Global Defined In Module
      -----  --------------------------------   ------------------------
     00094000  ___func_VM_RTC                     vm_rtc
     00094000  _vm_rtc_latch                      vm_rtc
     00094008  _vm_rtc_get                        vm_rtc
     0009406F  _vm_rtc_set                        vm_rtc
     000940CD  _vm_rtc_start                      vm_rtc
     000940F0  _actor_9_interact                  actor_9_interact
     000940F3  GBVM$actor_9_interact$da5b8954_f   actor_9_interact
     00094104  GBVM$actor_9_interact$24896652_2   actor_9_interact
     0009422B  GBVM$actor_9_interact$ba654ecd_a   actor_9_interact
     0009431B  GBVM$actor_9_interact$27d9f8d2_2   actor_9_interact
     00094320  GBVM_END$actor_9_interact$da5b89   actor_9_interact
     00094321  ___func_bg_new_folder_gate_tilem   bg_new_folder_gate_tilemap_a
     00094321  _bg_new_folder_gate_tilemap_attr   bg_new_folder_gate_tilemap_a
     00094579  ___func_bg_new_folder_gate_tilem   bg_new_folder_gate_tilemap
     00094579  _bg_new_folder_gate_tilemap        bg_new_folder_gate_tilemap
     000947D1  ___func_bg_new_folder_greathall_   bg_new_folder_greathall_tile
     000947D1  _bg_new_folder_greathall_tilemap   bg_new_folder_greathall_tile
     00094A29  ___func_bg_new_folder_greathall_   bg_new_folder_greathall_tile
     00094A29  _bg_new_folder_greathall_tilemap   bg_new_folder_greathall_tile
     00094C81  ___func_bg_new_folder_inner_east   bg_new_folder_inner_east_ga_
     00094C81  _bg_new_folder_inner_east_ga_0_t   bg_new_folder_inner_east_ga_
     00094ED9  ___func_bg_new_folder_inner_east   bg_new_folder_inner_east_ga_
     00094ED9  _bg_new_folder_inner_east_ga_0_t   bg_new_folder_inner_east_ga_
     00095131  ___func_bg_new_folder_inner_east   bg_new_folder_inner_east_ga_
     00095131  _bg_new_folder_inner_east_ga_til   bg_new_folder_inner_east_ga_
     00095389  ___func_bg_new_folder_inner_east   bg_new_folder_inner_east_ga_
     00095389  _bg_new_folder_inner_east_ga_til   bg_new_folder_inner_east_ga_
     000955E1  ___func_bg_new_folder_nw_tower1_   bg_new_folder_nw_tower1_tile
     000955E1  _bg_new_folder_nw_tower1_tilemap   bg_new_folder_nw_tower1_tile
     00095839  ___func_bg_new_folder_nw_tower1_   bg_new_folder_nw_tower1_tile
     00095839  _bg_new_folder_nw_tower1_tilemap   bg_new_folder_nw_tower1_tile
     00095A91  ___func_bg_new_folder_nw_tower2_   bg_new_folder_nw_tower2_tile
     00095A91  _bg_new_folder_nw_tower2_tilemap   bg_new_folder_nw_tower2_tile
     00095CE9  ___func_bg_new_folder_nw_tower2_   bg_new_folder_nw_tower2_tile
     00095CE9  _bg_new_folder_nw_tower2_tilemap   bg_new_folder_nw_tower2_tile
     00095F41  ___func_bg_new_folder_south_dam1   bg_new_folder_south_dam1_til
     00095F41  _bg_new_folder_south_dam1_tilema   bg_new_folder_south_dam1_til
     00096199  ___func_bg_new_folder_south_dam1   bg_new_folder_south_dam1_til
     00096199  _bg_new_folder_south_dam1_tilema   bg_new_folder_south_dam1_til
     000963F1  ___func_bg_new_folder_south_dam2   bg_new_folder_south_dam2_til
     000963F1  _bg_new_folder_south_dam2_tilema   bg_new_folder_south_dam2_til
     00096649  ___func_bg_new_folder_south_dam2   bg_new_folder_south_dam2_til
     00096649  _bg_new_folder_south_dam2_tilema   bg_new_folder_south_dam2_til
     000968A1  ___func_scene_0_sprites            scene_0_sprites
     000968A1  _scene_0_sprites                   scene_0_sprites
     000968A7  ___func_scene_13_collisions        scene_13_collisions
     000968A7  _scene_13_collisions               scene_13_collisions
     00096AFF  ___func_scene_14_collisions        scene_14_collisions
     00096AFF  _scene_14_collisions               scene_14_collisions
     00096D57  ___func_scene_15_collisions        scene_15_collisions
ASxxxx Linker V03.00/V05.40 + sdld,  page 93.
Hexadecimal  [32-Bits]

Area                                    Addr        Size        Decimal Bytes (Attributes)
--------------------------------        ----        ----        ------- ----- ------------
_CODE_9                             00094000    00003FFF =       16383. bytes (REL,CON)

      Value  Global                              Global Defined In Module
      -----  --------------------------------   ------------------------
     00096D57  _scene_15_collisions               scene_15_collisions
     00096FAF  ___func_scene_23_sprites           scene_23_sprites
     00096FAF  _scene_23_sprites                  scene_23_sprites
     00096FB2  ___func_scene_3_collisions         scene_3_collisions
     00096FB2  _scene_3_collisions                scene_3_collisions
     0009720A  ___func_scene_30_collisions        scene_30_collisions
     0009720A  _scene_30_collisions               scene_30_collisions
     00097462  _scene_31_init                     scene_31_init
     00097465  GBVM$scene_31_init$45feefce_4c94   scene_31_init
     0009746D  GBVM$scene_31_init$autofade$036a   scene_31_init
     00097483  GBVM$scene_31_init$730062d3_9db8   scene_31_init
     0009766C  GBVM$scene_31_init$da7a93f0_6bb3   scene_31_init
     0009769F  ___func_scene_4_collisions         scene_4_collisions
     0009769F  _scene_4_collisions                scene_4_collisions
     000978F7  ___func_scene_5_collisions         scene_5_collisions
     000978F7  _scene_5_collisions                scene_5_collisions
     00097B4F  ___func_scene_7_collisions         scene_7_collisions
     00097B4F  _scene_7_collisions                scene_7_collisions
     00097DA7  ___func_scene_8_collisions         scene_8_collisions
     00097DA7  _scene_8_collisions                scene_8_collisions

ASxxxx Linker V03.00/V05.40 + sdld,  page 94.
Hexadecimal  [32-Bits]

Area                                    Addr        Size        Decimal Bytes (Attributes)
--------------------------------        ----        ----        ------- ----- ------------
_CODE_3                             00034000    00004000 =       16384. bytes (REL,CON)

      Value  Global                              Global Defined In Module
      -----  --------------------------------   ------------------------
     00034000  ___func_VM_MAIN                    vm
     00034000  _vm_call                           vm
     00034042  _vm_ret                            vm
     000340A2  _vm_call_far                       vm
     00034121  _vm_ret_far                        vm
     00034199  _vm_push                           vm
     000341C4  _vm_pop                            vm
     000341FF  _vm_loop                           vm
     0003428A  _vm_jump                           vm
     00034296  _wait_frames                       vm
     0003430C  _vm_invoke                         vm
     00034439  _vm_join                           vm
     0003449B  _vm_terminate                      vm
     000344C8  _vm_if                             vm
     0003460D  _vm_if_const                       vm
     00034722  _vm_push_value                     vm
     00034774  _vm_push_value_ind                 vm
     000347E9  _vm_push_reference                 vm
     00034840  _vm_reserve                        vm
     0003486E  _vm_set                            vm
     000348CF  _vm_set_const                      vm
     000348FB  _vm_get_tlocal                     vm
     00034988  _vm_test_terminate                 vm
     00034993  _vm_idle                           vm
     0003499F  _vm_init_rng                       vm
     000349CB  _vm_rand                           vm
     00034A0D  _vm_lock                           vm
     00034A1C  _vm_unlock                         vm
     00034A2F  _vm_raise                          vm
     00034A71  _vm_set_indirect                   vm
     00034AEC  _vm_get_indirect                   vm
     00034B67  _vm_poll_loaded                    vm
     00034B97  _vm_memset                         vm
     00034BD1  _vm_memcpy                         vm
     00034C4E  _script_runner_init                vm
     00034D05  _script_execute                    vm
     00034E6B  _script_terminate                  vm
     00034ED0  _script_detach_hthread             vm
     00034F0C  ___func_bg_new_folder_kitchen_to   bg_new_folder_kitchen_tower_
     00034F0C  _bg_new_folder_kitchen_tower_0_t   bg_new_folder_kitchen_tower_
     000353BC  ___func_font_rips_commodore_64_a   font_rips_commodore_64_asci
     0003617C  _font_rips_commodore_64_asci       font_rips_commodore_64_asci
     00036F73  _song_song_1_Data                  song_song_1_Data
     00037F4F  _song_song_4_Data                  song_song_4_Data
     00037F64  ___func_scene_12_actors            scene_12_actors
     00037F64  _scene_12_actors                   scene_12_actors

ASxxxx Linker V03.00/V05.40 + sdld,  page 95.
Hexadecimal  [32-Bits]

Area                                    Addr        Size        Decimal Bytes (Attributes)
--------------------------------        ----        ----        ------- ----- ------------
_CODE_4                             00044000    00004000 =       16384. bytes (REL,CON)

      Value  Global                              Global Defined In Module
      -----  --------------------------------   ------------------------
     00044000  ___func_bg_new_folder_inner_east   bg_new_folder_inner_east_ga_
     00044000  _bg_new_folder_inner_east_ga_0_t   bg_new_folder_inner_east_ga_
     00044AA2  ___func_bg_new_folder_kitchen_to   bg_new_folder_kitchen_tower_
     00044AA2  _bg_new_folder_kitchen_tower_0_t   bg_new_folder_kitchen_tower_
     00045684  ___func_bg_new_folder_kitchen_to   bg_new_folder_kitchen_tower_
     00045684  _bg_new_folder_kitchen_tower_til   bg_new_folder_kitchen_tower_
     00046186  ___func_bg_new_folder_nw_tower1_   bg_new_folder_nw_tower1_tile
     00046186  _bg_new_folder_nw_tower1_tileset   bg_new_folder_nw_tower1_tile
     00046BE8  ___func_bg_new_folder_southwest2   bg_new_folder_southwest2_til
     00046BE8  _bg_new_folder_southwest2_tilese   bg_new_folder_southwest2_til
     0004777A  ___func_scene_19_sprites           scene_19_sprites
     0004777A  _scene_19_sprites                  scene_19_sprites
     0004777D  _trigger_100_interact              trigger_100_interact
     00047780  GBVM$trigger_100_interact$c49b99   trigger_100_interact
     00047795  GBVM$trigger_100_interact$bba85d   trigger_100_interact
     000477EE  GBVM$trigger_100_interact$f21ad0   trigger_100_interact
     000477F3  GBVM$trigger_100_interact$750ba3   trigger_100_interact
     000477F7  GBVM$trigger_100_interact$ce3568   trigger_100_interact
     00047812  GBVM$trigger_100_interact$2b4cd8   trigger_100_interact
     00047837  GBVM_END$trigger_100_interact$c4   trigger_100_interact
     00047838  _shmup_init                        shmup
     000478D5  _shmup_update                      shmup

ASxxxx Linker V03.00/V05.40 + sdld,  page 96.
Hexadecimal  [32-Bits]

Area                                    Addr        Size        Decimal Bytes (Attributes)
--------------------------------        ----        ----        ------- ----- ------------
_HEADER_LCD0                        00000000    00000003 =           3. bytes (ABS,CON)

      Value  Global                              Global Defined In Module
      -----  --------------------------------   ------------------------
ASxxxx Linker V03.00/V05.40 + sdld,  page 97.

Files Linked                              [ module(s) ]

C:\Users\pasta\AppData\Local\Temp/_gbstools/gbdk/lib/gb/crt0.o
                                          [ Runtime ]
C:/Users/pasta/AppData/Local/Temp/_gbsbuild/obj/absolute.rel
                                          [ absolute ]
C:/Users/pasta/AppData/Local/Temp/_gbsbuild/obj/actor.rel
                                          [ actor ]
C:/Users/pasta/AppData/Local/Temp/_gbsbuild/obj/bankdata.rel
                                          [ bankdata ]
C:/Users/pasta/AppData/Local/Temp/_gbsbuild/obj/bootstrap.rel
                                          [  ]
C:/Users/pasta/AppData/Local/Temp/_gbsbuild/obj/camera.rel
                                          [ camera ]
C:/Users/pasta/AppData/Local/Temp/_gbsbuild/obj/core.rel
                                          [ core ]
C:/Users/pasta/AppData/Local/Temp/_gbsbuild/obj/crash_handler.rel
                                          [  ]
C:/Users/pasta/AppData/Local/Temp/_gbsbuild/obj/data_manager.rel
                                          [ data_manager ]
C:/Users/pasta/AppData/Local/Temp/_gbsbuild/obj/events.rel
                                          [ events ]
C:/Users/pasta/AppData/Local/Temp/_gbsbuild/obj/fade_manager.rel
                                          [ fade_manager ]
C:/Users/pasta/AppData/Local/Temp/_gbsbuild/obj/flasher_s.rel
                                          [  ]
C:/Users/pasta/AppData/Local/Temp/_gbsbuild/obj/flasher.rel
                                          [ flasher ]
C:/Users/pasta/AppData/Local/Temp/_gbsbuild/obj/game_time.rel
                                          [ game_time ]
C:/Users/pasta/AppData/Local/Temp/_gbsbuild/obj/gbprinter.rel
                                          [ gbprinter ]
C:/Users/pasta/AppData/Local/Temp/_gbsbuild/obj/input.rel
                                          [ input ]
C:/Users/pasta/AppData/Local/Temp/_gbsbuild/obj/interrupt_sio.rel
                                          [  ]
C:/Users/pasta/AppData/Local/Temp/_gbsbuild/obj/interrupt_timer.rel
                                          [  ]
C:/Users/pasta/AppData/Local/Temp/_gbsbuild/obj/interrupts.rel
                                          [ interrupts ]
C:/Users/pasta/AppData/Local/Temp/_gbsbuild/obj/load_save.rel
                                          [ load_save ]
C:/Users/pasta/AppData/Local/Temp/_gbsbuild/obj/math_atan2.rel
                                          [ math_atan2 ]
C:/Users/pasta/AppData/Local/Temp/_gbsbuild/obj/math.rel
                                          [ math ]
C:/Users/pasta/AppData/Local/Temp/_gbsbuild/obj/music_manager.rel
                                          [ music_manager ]
C:/Users/pasta/AppData/Local/Temp/_gbsbuild/obj/palette.rel
                                          [ palette ]
C:/Users/pasta/AppData/Local/Temp/_gbsbuild/obj/parallax.rel
                                          [ parallax ]
C:/Users/pasta/AppData/Local/Temp/_gbsbuild/obj/projectiles.rel
                                          [ projectiles ]
C:/Users/pasta/AppData/Local/Temp/_gbsbuild/obj/scroll_a.rel
                                          [  ]
C:/Users/pasta/AppData/Local/Temp/_gbsbuild/obj/scroll.rel
                                          [ scroll ]
C:/Users/pasta/AppData/Local/Temp/_gbsbuild/obj/set_tile_submap.rel
                                          [  ]
C:/Users/pasta/AppData/Local/Temp/_gbsbuild/obj/sfx_player.rel
                                          [ sfx_player ]
C:/Users/pasta/AppData/Local/Temp/_gbsbuild/obj/sgb_border.rel
                                          [ sgb_border ]
C:/Users/pasta/AppData/Local/Temp/_gbsbuild/obj/sio.rel
                                          [ sio ]
C:/Users/pasta/AppData/Local/Temp/_gbsbuild/obj/states_caller.rel
                                          [  ]
C:/Users/pasta/AppData/Local/Temp/_gbsbuild/obj/system.rel
                                          [ system ]
C:/Users/pasta/AppData/Local/Temp/_gbsbuild/obj/trigger.rel
                                          [ trigger ]
C:/Users/pasta/AppData/Local/Temp/_gbsbuild/obj/ui_a.rel
                                          [  ]
C:/Users/pasta/AppData/Local/Temp/_gbsbuild/obj/ui.rel
                                          [ ui ]
C:/Users/pasta/AppData/Local/Temp/_gbsbuild/obj/vm_actor.rel
                                          [ vm_actor ]
C:/Users/pasta/AppData/Local/Temp/_gbsbuild/obj/vm_camera.rel
                                          [ vm_camera ]
C:/Users/pasta/AppData/Local/Temp/_gbsbuild/obj/vm_gameboy.rel
                                          [ vm_gameboy ]
C:/Users/pasta/AppData/Local/Temp/_gbsbuild/obj/vm_gbprinter.rel
                                          [ vm_gbprinter ]
C:/Users/pasta/AppData/Local/Temp/_gbsbuild/obj/vm_instructions.rel
                                          [ vm_instructions ]
C:/Users/pasta/AppData/Local/Temp/_gbsbuild/obj/vm_load_save.rel
                                          [ vm_load_save ]
C:/Users/pasta/AppData/Local/Temp/_gbsbuild/obj/vm_math.rel
                                          [ vm_math ]
C:/Users/pasta/AppData/Local/Temp/_gbsbuild/obj/vm_music.rel
                                          [ vm_music ]
C:/Users/pasta/AppData/Local/Temp/_gbsbuild/obj/vm_palette.rel
                                          [ vm_palette ]
C:/Users/pasta/AppData/Local/Temp/_gbsbuild/obj/vm_projectiles.rel
                                          [ vm_projectiles ]
C:/Users/pasta/AppData/Local/Temp/_gbsbuild/obj/vm_rtc.rel
                                          [ vm_rtc ]
C:/Users/pasta/AppData/Local/Temp/_gbsbuild/obj/vm_scene.rel
                                          [ vm_scene ]
C:/Users/pasta/AppData/Local/Temp/_gbsbuild/obj/vm_sgb.rel
                                          [ vm_sgb ]
C:/Users/pasta/AppData/Local/Temp/_gbsbuild/obj/vm_sio.rel
                                          [ vm_sio ]
C:/Users/pasta/AppData/Local/Temp/_gbsbuild/obj/vm_ui_a.rel
                                          [ vm_ui_a ]
C:/Users/pasta/AppData/Local/Temp/_gbsbuild/obj/vm_ui.rel
                                          [ vm_ui ]
C:/Users/pasta/AppData/Local/Temp/_gbsbuild/obj/vm.rel
                                          [ vm ]
C:/Users/pasta/AppData/Local/Temp/_gbsbuild/obj/actor_0_interact.rel
                                          [ actor_0_interact ]
C:/Users/pasta/AppData/Local/Temp/_gbsbuild/obj/actor_1_interact.rel
                                          [ actor_1_interact ]
C:/Users/pasta/AppData/Local/Temp/_gbsbuild/obj/actor_10_interact.rel
                                          [ actor_10_interact ]
C:/Users/pasta/AppData/Local/Temp/_gbsbuild/obj/actor_12_interact.rel
                                          [ actor_12_interact ]
C:/Users/pasta/AppData/Local/Temp/_gbsbuild/obj/actor_13_interact.rel
                                          [ actor_13_interact ]
C:/Users/pasta/AppData/Local/Temp/_gbsbuild/obj/actor_14_interact.rel
                                          [ actor_14_interact ]
C:/Users/pasta/AppData/Local/Temp/_gbsbuild/obj/actor_15_interact.rel
                                          [ actor_15_interact ]
C:/Users/pasta/AppData/Local/Temp/_gbsbuild/obj/actor_16_interact.rel
                                          [ actor_16_interact ]
C:/Users/pasta/AppData/Local/Temp/_gbsbuild/obj/actor_17_interact.rel
                                          [ actor_17_interact ]
C:/Users/pasta/AppData/Local/Temp/_gbsbuild/obj/actor_18_interact.rel
                                          [ actor_18_interact ]
C:/Users/pasta/AppData/Local/Temp/_gbsbuild/obj/actor_19_interact.rel
                                          [ actor_19_interact ]
C:/Users/pasta/AppData/Local/Temp/_gbsbuild/obj/actor_2_interact.rel
                                          [ actor_2_interact ]
C:/Users/pasta/AppData/Local/Temp/_gbsbuild/obj/actor_20_interact.rel
                                          [ actor_20_interact ]
C:/Users/pasta/AppData/Local/Temp/_gbsbuild/obj/actor_21_interact.rel
                                          [ actor_21_interact ]
C:/Users/pasta/AppData/Local/Temp/_gbsbuild/obj/actor_22_interact.rel
                                          [ actor_22_interact ]
C:/Users/pasta/AppData/Local/Temp/_gbsbuild/obj/actor_23_interact.rel
                                          [ actor_23_interact ]
C:/Users/pasta/AppData/Local/Temp/_gbsbuild/obj/actor_24_interact.rel
                                          [ actor_24_interact ]
C:/Users/pasta/AppData/Local/Temp/_gbsbuild/obj/actor_25_interact.rel
                                          [ actor_25_interact ]
C:/Users/pasta/AppData/Local/Temp/_gbsbuild/obj/actor_26_interact.rel
                                          [ actor_26_interact ]
C:/Users/pasta/AppData/Local/Temp/_gbsbuild/obj/actor_27_interact.rel
                                          [ actor_27_interact ]
C:/Users/pasta/AppData/Local/Temp/_gbsbuild/obj/actor_28_interact.rel
                                          [ actor_28_interact ]
C:/Users/pasta/AppData/Local/Temp/_gbsbuild/obj/actor_29_interact.rel
                                          [ actor_29_interact ]
C:/Users/pasta/AppData/Local/Temp/_gbsbuild/obj/actor_3_interact.rel
                                          [ actor_3_interact ]
C:/Users/pasta/AppData/Local/Temp/_gbsbuild/obj/actor_30_interact.rel
                                          [ actor_30_interact ]
C:/Users/pasta/AppData/Local/Temp/_gbsbuild/obj/actor_31_interact.rel
                                          [ actor_31_interact ]
C:/Users/pasta/AppData/Local/Temp/_gbsbuild/obj/actor_32_interact.rel
                                          [ actor_32_interact ]
C:/Users/pasta/AppData/Local/Temp/_gbsbuild/obj/actor_34_interact.rel
                                          [ actor_34_interact ]
C:/Users/pasta/AppData/Local/Temp/_gbsbuild/obj/actor_35_interact.rel
                                          [ actor_35_interact ]
C:/Users/pasta/AppData/Local/Temp/_gbsbuild/obj/actor_36_interact.rel
                                          [ actor_36_interact ]
C:/Users/pasta/AppData/Local/Temp/_gbsbuild/obj/actor_37_interact.rel
                                          [ actor_37_interact ]
C:/Users/pasta/AppData/Local/Temp/_gbsbuild/obj/actor_38_interact.rel
                                          [ actor_38_interact ]
C:/Users/pasta/AppData/Local/Temp/_gbsbuild/obj/actor_39_interact.rel
                                          [ actor_39_interact ]
C:/Users/pasta/AppData/Local/Temp/_gbsbuild/obj/actor_4_interact.rel
                                          [ actor_4_interact ]
C:/Users/pasta/AppData/Local/Temp/_gbsbuild/obj/actor_4_update.rel
                                          [ actor_4_update ]
C:/Users/pasta/AppData/Local/Temp/_gbsbuild/obj/actor_40_interact.rel
                                          [ actor_40_interact ]
C:/Users/pasta/AppData/Local/Temp/_gbsbuild/obj/actor_41_interact.rel
                                          [ actor_41_interact ]
C:/Users/pasta/AppData/Local/Temp/_gbsbuild/obj/actor_42_interact.rel
                                          [ actor_42_interact ]
C:/Users/pasta/AppData/Local/Temp/_gbsbuild/obj/actor_43_interact.rel
                                          [ actor_43_interact ]
C:/Users/pasta/AppData/Local/Temp/_gbsbuild/obj/actor_44_interact.rel
                                          [ actor_44_interact ]
C:/Users/pasta/AppData/Local/Temp/_gbsbuild/obj/actor_45_interact.rel
                                          [ actor_45_interact ]
C:/Users/pasta/AppData/Local/Temp/_gbsbuild/obj/actor_46_interact.rel
                                          [ actor_46_interact ]
C:/Users/pasta/AppData/Local/Temp/_gbsbuild/obj/actor_5_interact.rel
                                          [ actor_5_interact ]
C:/Users/pasta/AppData/Local/Temp/_gbsbuild/obj/actor_6_interact.rel
                                          [ actor_6_interact ]
C:/Users/pasta/AppData/Local/Temp/_gbsbuild/obj/actor_7_interact.rel
                                          [ actor_7_interact ]
C:/Users/pasta/AppData/Local/Temp/_gbsbuild/obj/actor_8_interact.rel
                                          [ actor_8_interact ]
C:/Users/pasta/AppData/Local/Temp/_gbsbuild/obj/actor_9_interact.rel
                                          [ actor_9_interact ]
C:/Users/pasta/AppData/Local/Temp/_gbsbuild/obj/bg_logos_and_endings_ahhhlo_tilemap_attr.rel
                                          [ bg_logos_and_endings_ahhhlo_tile ]
C:/Users/pasta/AppData/Local/Temp/_gbsbuild/obj/bg_logos_and_endings_ahhhlo_tilemap.rel
                                          [ bg_logos_and_endings_ahhhlo_tile ]
C:/Users/pasta/AppData/Local/Temp/_gbsbuild/obj/bg_logos_and_endings_ahhhlo_tileset.rel
                                          [ bg_logos_and_endings_ahhhlo_tile ]
C:/Users/pasta/AppData/Local/Temp/_gbsbuild/obj/bg_logos_and_endings_ahhhlo.rel
                                          [ bg_logos_and_endings_ahhhlo ]
C:/Users/pasta/AppData/Local/Temp/_gbsbuild/obj/bg_logos_and_endings_ending_tilemap_attr.rel
                                          [ bg_logos_and_endings_ending_tile ]
C:/Users/pasta/AppData/Local/Temp/_gbsbuild/obj/bg_logos_and_endings_ending_tilemap.rel
                                          [ bg_logos_and_endings_ending_tile ]
C:/Users/pasta/AppData/Local/Temp/_gbsbuild/obj/bg_logos_and_endings_ending_tileset.rel
                                          [ bg_logos_and_endings_ending_tile ]
C:/Users/pasta/AppData/Local/Temp/_gbsbuild/obj/bg_logos_and_endings_ending.rel
                                          [ bg_logos_and_endings_ending ]
C:/Users/pasta/AppData/Local/Temp/_gbsbuild/obj/bg_mapv2_tilemap_attr.rel
                                          [ bg_mapv2_tilemap_attr ]
C:/Users/pasta/AppData/Local/Temp/_gbsbuild/obj/bg_mapv2_tilemap.rel
                                          [ bg_mapv2_tilemap ]
C:/Users/pasta/AppData/Local/Temp/_gbsbuild/obj/bg_mapv2_tileset.rel
                                          [ bg_mapv2_tileset ]
C:/Users/pasta/AppData/Local/Temp/_gbsbuild/obj/bg_mapv2.rel
                                          [ bg_mapv2 ]
C:/Users/pasta/AppData/Local/Temp/_gbsbuild/obj/bg_new_folder_gate_close_tilemap_attr.rel
                                          [ bg_new_folder_gate_close_tilemap ]
C:/Users/pasta/AppData/Local/Temp/_gbsbuild/obj/bg_new_folder_gate_close_tilemap.rel
                                          [ bg_new_folder_gate_close_tilemap ]
C:/Users/pasta/AppData/Local/Temp/_gbsbuild/obj/bg_new_folder_gate_close_tileset.rel
                                          [ bg_new_folder_gate_close_tileset ]
C:/Users/pasta/AppData/Local/Temp/_gbsbuild/obj/bg_new_folder_gate_close.rel
                                          [ bg_new_folder_gate_close ]
C:/Users/pasta/AppData/Local/Temp/_gbsbuild/obj/bg_new_folder_gate_tilemap_attr.rel
                                          [ bg_new_folder_gate_tilemap_attr ]
C:/Users/pasta/AppData/Local/Temp/_gbsbuild/obj/bg_new_folder_gate_tilemap.rel
                                          [ bg_new_folder_gate_tilemap ]
C:/Users/pasta/AppData/Local/Temp/_gbsbuild/obj/bg_new_folder_gate_tileset.rel
                                          [ bg_new_folder_gate_tileset ]
C:/Users/pasta/AppData/Local/Temp/_gbsbuild/obj/bg_new_folder_gate.rel
                                          [ bg_new_folder_gate ]
C:/Users/pasta/AppData/Local/Temp/_gbsbuild/obj/bg_new_folder_greathall_tilemap_attr.rel
                                          [ bg_new_folder_greathall_tilemap_ ]
C:/Users/pasta/AppData/Local/Temp/_gbsbuild/obj/bg_new_folder_greathall_tilemap.rel
                                          [ bg_new_folder_greathall_tilemap ]
C:/Users/pasta/AppData/Local/Temp/_gbsbuild/obj/bg_new_folder_greathall_tileset.rel
                                          [ bg_new_folder_greathall_tileset ]
C:/Users/pasta/AppData/Local/Temp/_gbsbuild/obj/bg_new_folder_greathall.rel
                                          [ bg_new_folder_greathall ]
C:/Users/pasta/AppData/Local/Temp/_gbsbuild/obj/bg_new_folder_inner_east_ga_0_tilemap_attr.rel
                                          [ bg_new_folder_inner_east_ga_0_ti ]
C:/Users/pasta/AppData/Local/Temp/_gbsbuild/obj/bg_new_folder_inner_east_ga_0_tilemap.rel
                                          [ bg_new_folder_inner_east_ga_0_ti ]
C:/Users/pasta/AppData/Local/Temp/_gbsbuild/obj/bg_new_folder_inner_east_ga_0_tileset.rel
                                          [ bg_new_folder_inner_east_ga_0_ti ]
C:/Users/pasta/AppData/Local/Temp/_gbsbuild/obj/bg_new_folder_inner_east_ga_0.rel
                                          [ bg_new_folder_inner_east_ga_0 ]
C:/Users/pasta/AppData/Local/Temp/_gbsbuild/obj/bg_new_folder_inner_east_ga_tilemap_attr.rel
                                          [ bg_new_folder_inner_east_ga_tile ]
C:/Users/pasta/AppData/Local/Temp/_gbsbuild/obj/bg_new_folder_inner_east_ga_tilemap.rel
                                          [ bg_new_folder_inner_east_ga_tile ]
C:/Users/pasta/AppData/Local/Temp/_gbsbuild/obj/bg_new_folder_inner_east_ga_tileset.rel
                                          [ bg_new_folder_inner_east_ga_tile ]
C:/Users/pasta/AppData/Local/Temp/_gbsbuild/obj/bg_new_folder_inner_east_ga.rel
                                          [ bg_new_folder_inner_east_ga ]
C:/Users/pasta/AppData/Local/Temp/_gbsbuild/obj/bg_new_folder_kitchen_tower_0_tilemap_attr.rel
                                          [ bg_new_folder_kitchen_tower_0_ti ]
C:/Users/pasta/AppData/Local/Temp/_gbsbuild/obj/bg_new_folder_kitchen_tower_0_tilemap.rel
                                          [ bg_new_folder_kitchen_tower_0_ti ]
C:/Users/pasta/AppData/Local/Temp/_gbsbuild/obj/bg_new_folder_kitchen_tower_0_tileset.rel
                                          [ bg_new_folder_kitchen_tower_0_ti ]
C:/Users/pasta/AppData/Local/Temp/_gbsbuild/obj/bg_new_folder_kitchen_tower_0.rel
                                          [ bg_new_folder_kitchen_tower_0 ]
C:/Users/pasta/AppData/Local/Temp/_gbsbuild/obj/bg_new_folder_kitchen_tower_tilemap_attr.rel
                                          [ bg_new_folder_kitchen_tower_tile ]
C:/Users/pasta/AppData/Local/Temp/_gbsbuild/obj/bg_new_folder_kitchen_tower_tilemap.rel
                                          [ bg_new_folder_kitchen_tower_tile ]
C:/Users/pasta/AppData/Local/Temp/_gbsbuild/obj/bg_new_folder_kitchen_tower_tileset.rel
                                          [ bg_new_folder_kitchen_tower_tile ]
C:/Users/pasta/AppData/Local/Temp/_gbsbuild/obj/bg_new_folder_kitchen_tower.rel
                                          [ bg_new_folder_kitchen_tower ]
C:/Users/pasta/AppData/Local/Temp/_gbsbuild/obj/bg_new_folder_nw_tower1_tilemap_attr.rel
                                          [ bg_new_folder_nw_tower1_tilemap_ ]
C:/Users/pasta/AppData/Local/Temp/_gbsbuild/obj/bg_new_folder_nw_tower1_tilemap.rel
                                          [ bg_new_folder_nw_tower1_tilemap ]
C:/Users/pasta/AppData/Local/Temp/_gbsbuild/obj/bg_new_folder_nw_tower1_tileset.rel
                                          [ bg_new_folder_nw_tower1_tileset ]
C:/Users/pasta/AppData/Local/Temp/_gbsbuild/obj/bg_new_folder_nw_tower1.rel
                                          [ bg_new_folder_nw_tower1 ]
C:/Users/pasta/AppData/Local/Temp/_gbsbuild/obj/bg_new_folder_nw_tower2_tilemap_attr.rel
                                          [ bg_new_folder_nw_tower2_tilemap_ ]
C:/Users/pasta/AppData/Local/Temp/_gbsbuild/obj/bg_new_folder_nw_tower2_tilemap.rel
                                          [ bg_new_folder_nw_tower2_tilemap ]
C:/Users/pasta/AppData/Local/Temp/_gbsbuild/obj/bg_new_folder_nw_tower2_tileset.rel
                                          [ bg_new_folder_nw_tower2_tileset ]
C:/Users/pasta/AppData/Local/Temp/_gbsbuild/obj/bg_new_folder_nw_tower2.rel
                                          [ bg_new_folder_nw_tower2 ]
C:/Users/pasta/AppData/Local/Temp/_gbsbuild/obj/bg_new_folder_se1_tilemap_attr.rel
                                          [ bg_new_folder_se1_tilemap_attr ]
C:/Users/pasta/AppData/Local/Temp/_gbsbuild/obj/bg_new_folder_se1_tilemap.rel
                                          [ bg_new_folder_se1_tilemap ]
C:/Users/pasta/AppData/Local/Temp/_gbsbuild/obj/bg_new_folder_se1_tileset.rel
                                          [ bg_new_folder_se1_tileset ]
C:/Users/pasta/AppData/Local/Temp/_gbsbuild/obj/bg_new_folder_se1.rel
                                          [ bg_new_folder_se1 ]
C:/Users/pasta/AppData/Local/Temp/_gbsbuild/obj/bg_new_folder_se2_tilemap_attr.rel
                                          [ bg_new_folder_se2_tilemap_attr ]
C:/Users/pasta/AppData/Local/Temp/_gbsbuild/obj/bg_new_folder_se2_tilemap.rel
                                          [ bg_new_folder_se2_tilemap ]
C:/Users/pasta/AppData/Local/Temp/_gbsbuild/obj/bg_new_folder_se2_tileset.rel
                                          [ bg_new_folder_se2_tileset ]
C:/Users/pasta/AppData/Local/Temp/_gbsbuild/obj/bg_new_folder_se2.rel
                                          [ bg_new_folder_se2 ]
C:/Users/pasta/AppData/Local/Temp/_gbsbuild/obj/bg_new_folder_south_dam1_tilemap_attr.rel
                                          [ bg_new_folder_south_dam1_tilemap ]
C:/Users/pasta/AppData/Local/Temp/_gbsbuild/obj/bg_new_folder_south_dam1_tilemap.rel
                                          [ bg_new_folder_south_dam1_tilemap ]
C:/Users/pasta/AppData/Local/Temp/_gbsbuild/obj/bg_new_folder_south_dam1_tileset.rel
                                          [ bg_new_folder_south_dam1_tileset ]
C:/Users/pasta/AppData/Local/Temp/_gbsbuild/obj/bg_new_folder_south_dam1.rel
                                          [ bg_new_folder_south_dam1 ]
C:/Users/pasta/AppData/Local/Temp/_gbsbuild/obj/bg_new_folder_south_dam2_tilemap_attr.rel
                                          [ bg_new_folder_south_dam2_tilemap ]
C:/Users/pasta/AppData/Local/Temp/_gbsbuild/obj/bg_new_folder_south_dam2_tilemap.rel
                                          [ bg_new_folder_south_dam2_tilemap ]
C:/Users/pasta/AppData/Local/Temp/_gbsbuild/obj/bg_new_folder_south_dam2_tileset.rel
                                          [ bg_new_folder_south_dam2_tileset ]
C:/Users/pasta/AppData/Local/Temp/_gbsbuild/obj/bg_new_folder_south_dam2.rel
                                          [ bg_new_folder_south_dam2 ]
C:/Users/pasta/AppData/Local/Temp/_gbsbuild/obj/bg_new_folder_southwest1_tilemap_attr.rel
                                          [ bg_new_folder_southwest1_tilemap ]
C:/Users/pasta/AppData/Local/Temp/_gbsbuild/obj/bg_new_folder_southwest1_tilemap.rel
                                          [ bg_new_folder_southwest1_tilemap ]
C:/Users/pasta/AppData/Local/Temp/_gbsbuild/obj/bg_new_folder_southwest1_tileset.rel
                                          [ bg_new_folder_southwest1_tileset ]
C:/Users/pasta/AppData/Local/Temp/_gbsbuild/obj/bg_new_folder_southwest1.rel
                                          [ bg_new_folder_southwest1 ]
C:/Users/pasta/AppData/Local/Temp/_gbsbuild/obj/bg_new_folder_southwest2_tilemap_attr.rel
                                          [ bg_new_folder_southwest2_tilemap ]
C:/Users/pasta/AppData/Local/Temp/_gbsbuild/obj/bg_new_folder_southwest2_tilemap.rel
                                          [ bg_new_folder_southwest2_tilemap ]
C:/Users/pasta/AppData/Local/Temp/_gbsbuild/obj/bg_new_folder_southwest2_tileset.rel
                                          [ bg_new_folder_southwest2_tileset ]
C:/Users/pasta/AppData/Local/Temp/_gbsbuild/obj/bg_new_folder_southwest2.rel
                                          [ bg_new_folder_southwest2 ]
C:/Users/pasta/AppData/Local/Temp/_gbsbuild/obj/bg_new_folder_top_down_c_1__tilemap_attr.rel
                                          [ bg_new_folder_top_down_c_1__tile ]
C:/Users/pasta/AppData/Local/Temp/_gbsbuild/obj/bg_new_folder_top_down_c_1__tilemap.rel
                                          [ bg_new_folder_top_down_c_1__tile ]
C:/Users/pasta/AppData/Local/Temp/_gbsbuild/obj/bg_new_folder_top_down_c_1__tileset_tile_map_test_tilemap_attr.rel
                                          [ bg_new_folder_top_down_c_1__tile ]
C:/Users/pasta/AppData/Local/Temp/_gbsbuild/obj/bg_new_folder_top_down_c_1__tileset_tile_map_test_tilemap.rel
                                          [ bg_new_folder_top_down_c_1__tile ]
C:/Users/pasta/AppData/Local/Temp/_gbsbuild/obj/bg_new_folder_top_down_c_1__tileset_tile_map_test_tileset.rel
                                          [ bg_new_folder_top_down_c_1__tile ]
C:/Users/pasta/AppData/Local/Temp/_gbsbuild/obj/bg_new_folder_top_down_c_1__tileset_tile_map_test.rel
                                          [ bg_new_folder_top_down_c_1__tile ]
C:/Users/pasta/AppData/Local/Temp/_gbsbuild/obj/bg_new_folder_top_down_c_1__tileset.rel
                                          [ bg_new_folder_top_down_c_1__tile ]
C:/Users/pasta/AppData/Local/Temp/_gbsbuild/obj/bg_new_folder_top_down_c_1_.rel
                                          [ bg_new_folder_top_down_c_1_ ]
C:/Users/pasta/AppData/Local/Temp/_gbsbuild/obj/bg_new_folder_top_down_c_2_tilemap_attr.rel
                                          [ bg_new_folder_top_down_c_2_tilem ]
C:/Users/pasta/AppData/Local/Temp/_gbsbuild/obj/bg_new_folder_top_down_c_2_tilemap.rel
                                          [ bg_new_folder_top_down_c_2_tilem ]
C:/Users/pasta/AppData/Local/Temp/_gbsbuild/obj/bg_new_folder_top_down_c_2_tileset_tile_map_test_tilemap_attr.rel
                                          [ bg_new_folder_top_down_c_2_tiles ]
C:/Users/pasta/AppData/Local/Temp/_gbsbuild/obj/bg_new_folder_top_down_c_2_tileset_tile_map_test_tilemap.rel
                                          [ bg_new_folder_top_down_c_2_tiles ]
C:/Users/pasta/AppData/Local/Temp/_gbsbuild/obj/bg_new_folder_top_down_c_2_tileset_tile_map_test_tileset.rel
                                          [ bg_new_folder_top_down_c_2_tiles ]
C:/Users/pasta/AppData/Local/Temp/_gbsbuild/obj/bg_new_folder_top_down_c_2_tileset_tile_map_test.rel
                                          [ bg_new_folder_top_down_c_2_tiles ]
C:/Users/pasta/AppData/Local/Temp/_gbsbuild/obj/bg_new_folder_top_down_c_2_tileset.rel
                                          [ bg_new_folder_top_down_c_2_tiles ]
C:/Users/pasta/AppData/Local/Temp/_gbsbuild/obj/bg_new_folder_top_down_c_2.rel
                                          [ bg_new_folder_top_down_c_2 ]
C:/Users/pasta/AppData/Local/Temp/_gbsbuild/obj/bg_new_folder_top_down_inne_tilemap_attr.rel
                                          [ bg_new_folder_top_down_inne_tile ]
C:/Users/pasta/AppData/Local/Temp/_gbsbuild/obj/bg_new_folder_top_down_inne_tilemap.rel
                                          [ bg_new_folder_top_down_inne_tile ]
C:/Users/pasta/AppData/Local/Temp/_gbsbuild/obj/bg_new_folder_top_down_inne_tileset.rel
                                          [ bg_new_folder_top_down_inne_tile ]
C:/Users/pasta/AppData/Local/Temp/_gbsbuild/obj/bg_new_folder_top_down_inne.rel
                                          [ bg_new_folder_top_down_inne ]
C:/Users/pasta/AppData/Local/Temp/_gbsbuild/obj/bg_new_folder_top_down_kitc_tilemap_attr.rel
                                          [ bg_new_folder_top_down_kitc_tile ]
C:/Users/pasta/AppData/Local/Temp/_gbsbuild/obj/bg_new_folder_top_down_kitc_tilemap.rel
                                          [ bg_new_folder_top_down_kitc_tile ]
C:/Users/pasta/AppData/Local/Temp/_gbsbuild/obj/bg_new_folder_top_down_kitc_tileset_tile_map_test_tilemap_attr.rel
                                          [ bg_new_folder_top_down_kitc_tile ]
C:/Users/pasta/AppData/Local/Temp/_gbsbuild/obj/bg_new_folder_top_down_kitc_tileset_tile_map_test_tilemap.rel
                                          [ bg_new_folder_top_down_kitc_tile ]
C:/Users/pasta/AppData/Local/Temp/_gbsbuild/obj/bg_new_folder_top_down_kitc_tileset_tile_map_test_tileset.rel
                                          [ bg_new_folder_top_down_kitc_tile ]
C:/Users/pasta/AppData/Local/Temp/_gbsbuild/obj/bg_new_folder_top_down_kitc_tileset_tile_map_test.rel
                                          [ bg_new_folder_top_down_kitc_tile ]
C:/Users/pasta/AppData/Local/Temp/_gbsbuild/obj/bg_new_folder_top_down_kitc_tileset.rel
                                          [ bg_new_folder_top_down_kitc_tile ]
C:/Users/pasta/AppData/Local/Temp/_gbsbuild/obj/bg_new_folder_top_down_kitc.rel
                                          [ bg_new_folder_top_down_kitc ]
C:/Users/pasta/AppData/Local/Temp/_gbsbuild/obj/bg_new_folder_top_down_towe_0_tilemap_attr.rel
                                          [ bg_new_folder_top_down_towe_0_ti ]
C:/Users/pasta/AppData/Local/Temp/_gbsbuild/obj/bg_new_folder_top_down_towe_0_tilemap.rel
                                          [ bg_new_folder_top_down_towe_0_ti ]
C:/Users/pasta/AppData/Local/Temp/_gbsbuild/obj/bg_new_folder_top_down_towe_0_tileset_tile_map_test_tilemap_attr.rel
                                          [ bg_new_folder_top_down_towe_0_ti ]
C:/Users/pasta/AppData/Local/Temp/_gbsbuild/obj/bg_new_folder_top_down_towe_0_tileset_tile_map_test_tilemap.rel
                                          [ bg_new_folder_top_down_towe_0_ti ]
C:/Users/pasta/AppData/Local/Temp/_gbsbuild/obj/bg_new_folder_top_down_towe_0_tileset_tile_map_test_tileset.rel
                                          [ bg_new_folder_top_down_towe_0_ti ]
C:/Users/pasta/AppData/Local/Temp/_gbsbuild/obj/bg_new_folder_top_down_towe_0_tileset_tile_map_test.rel
                                          [ bg_new_folder_top_down_towe_0_ti ]
C:/Users/pasta/AppData/Local/Temp/_gbsbuild/obj/bg_new_folder_top_down_towe_0_tileset.rel
                                          [ bg_new_folder_top_down_towe_0_ti ]
C:/Users/pasta/AppData/Local/Temp/_gbsbuild/obj/bg_new_folder_top_down_towe_0.rel
                                          [ bg_new_folder_top_down_towe_0 ]
C:/Users/pasta/AppData/Local/Temp/_gbsbuild/obj/bg_new_folder_top_down_towe_1_tilemap_attr.rel
                                          [ bg_new_folder_top_down_towe_1_ti ]
C:/Users/pasta/AppData/Local/Temp/_gbsbuild/obj/bg_new_folder_top_down_towe_1_tilemap.rel
                                          [ bg_new_folder_top_down_towe_1_ti ]
C:/Users/pasta/AppData/Local/Temp/_gbsbuild/obj/bg_new_folder_top_down_towe_1_tileset_tile_map_test_tilemap_attr.rel
                                          [ bg_new_folder_top_down_towe_1_ti ]
C:/Users/pasta/AppData/Local/Temp/_gbsbuild/obj/bg_new_folder_top_down_towe_1_tileset_tile_map_test_tilemap.rel
                                          [ bg_new_folder_top_down_towe_1_ti ]
C:/Users/pasta/AppData/Local/Temp/_gbsbuild/obj/bg_new_folder_top_down_towe_1_tileset_tile_map_test_tileset.rel
                                          [ bg_new_folder_top_down_towe_1_ti ]
C:/Users/pasta/AppData/Local/Temp/_gbsbuild/obj/bg_new_folder_top_down_towe_1_tileset_tile_map_test.rel
                                          [ bg_new_folder_top_down_towe_1_ti ]
C:/Users/pasta/AppData/Local/Temp/_gbsbuild/obj/bg_new_folder_top_down_towe_1_tileset.rel
                                          [ bg_new_folder_top_down_towe_1_ti ]
C:/Users/pasta/AppData/Local/Temp/_gbsbuild/obj/bg_new_folder_top_down_towe_1.rel
                                          [ bg_new_folder_top_down_towe_1 ]
C:/Users/pasta/AppData/Local/Temp/_gbsbuild/obj/bg_new_folder_top_down_towe_2_tilemap_attr.rel
                                          [ bg_new_folder_top_down_towe_2_ti ]
C:/Users/pasta/AppData/Local/Temp/_gbsbuild/obj/bg_new_folder_top_down_towe_2_tilemap.rel
                                          [ bg_new_folder_top_down_towe_2_ti ]
C:/Users/pasta/AppData/Local/Temp/_gbsbuild/obj/bg_new_folder_top_down_towe_2_tileset.rel
                                          [ bg_new_folder_top_down_towe_2_ti ]
C:/Users/pasta/AppData/Local/Temp/_gbsbuild/obj/bg_new_folder_top_down_towe_2.rel
                                          [ bg_new_folder_top_down_towe_2 ]
C:/Users/pasta/AppData/Local/Temp/_gbsbuild/obj/bg_new_folder_top_down_towe_tilemap_attr.rel
                                          [ bg_new_folder_top_down_towe_tile ]
C:/Users/pasta/AppData/Local/Temp/_gbsbuild/obj/bg_new_folder_top_down_towe_tilemap.rel
                                          [ bg_new_folder_top_down_towe_tile ]
C:/Users/pasta/AppData/Local/Temp/_gbsbuild/obj/bg_new_folder_top_down_towe_tileset_tile_map_test_tilemap_attr.rel
                                          [ bg_new_folder_top_down_towe_tile ]
C:/Users/pasta/AppData/Local/Temp/_gbsbuild/obj/bg_new_folder_top_down_towe_tileset_tile_map_test_tilemap.rel
                                          [ bg_new_folder_top_down_towe_tile ]
C:/Users/pasta/AppData/Local/Temp/_gbsbuild/obj/bg_new_folder_top_down_towe_tileset_tile_map_test_tileset.rel
                                          [ bg_new_folder_top_down_towe_tile ]
C:/Users/pasta/AppData/Local/Temp/_gbsbuild/obj/bg_new_folder_top_down_towe_tileset_tile_map_test.rel
                                          [ bg_new_folder_top_down_towe_tile ]
C:/Users/pasta/AppData/Local/Temp/_gbsbuild/obj/bg_new_folder_top_down_towe_tileset.rel
                                          [ bg_new_folder_top_down_towe_tile ]
C:/Users/pasta/AppData/Local/Temp/_gbsbuild/obj/bg_new_folder_top_down_towe.rel
                                          [ bg_new_folder_top_down_towe ]
C:/Users/pasta/AppData/Local/Temp/_gbsbuild/obj/bg_stars_tilemap_attr.rel
                                          [ bg_stars_tilemap_attr ]
C:/Users/pasta/AppData/Local/Temp/_gbsbuild/obj/bg_stars_tilemap.rel
                                          [ bg_stars_tilemap ]
C:/Users/pasta/AppData/Local/Temp/_gbsbuild/obj/bg_stars_tileset.rel
                                          [ bg_stars_tileset ]
C:/Users/pasta/AppData/Local/Temp/_gbsbuild/obj/bg_stars.rel
                                          [ bg_stars ]
C:/Users/pasta/AppData/Local/Temp/_gbsbuild/obj/cursor_image.rel
                                          [ cursor_image ]
C:/Users/pasta/AppData/Local/Temp/_gbsbuild/obj/emote_question.rel
                                          [ emote_question ]
C:/Users/pasta/AppData/Local/Temp/_gbsbuild/obj/emote_shock.rel
                                          [ emote_shock ]
C:/Users/pasta/AppData/Local/Temp/_gbsbuild/obj/emote_sleep.rel
                                          [ emote_sleep ]
C:/Users/pasta/AppData/Local/Temp/_gbsbuild/obj/font_rips_commodore_64_asci.rel
                                          [ font_rips_commodore_64_asci ]
C:/Users/pasta/AppData/Local/Temp/_gbsbuild/obj/frame_image.rel
                                          [ frame_image ]
C:/Users/pasta/AppData/Local/Temp/_gbsbuild/obj/game_signature.rel
                                          [ game_signature ]
C:/Users/pasta/AppData/Local/Temp/_gbsbuild/obj/song_song_1_Data.rel
                                          [ song_song_1_Data ]
C:/Users/pasta/AppData/Local/Temp/_gbsbuild/obj/song_song_3_Data.rel
                                          [ song_song_3_Data ]
C:/Users/pasta/AppData/Local/Temp/_gbsbuild/obj/song_song_4_Data.rel
                                          [ song_song_4_Data ]
C:/Users/pasta/AppData/Local/Temp/_gbsbuild/obj/palette_0.rel
                                          [ palette_0 ]
C:/Users/pasta/AppData/Local/Temp/_gbsbuild/obj/palette_1.rel
                                          [ palette_1 ]
C:/Users/pasta/AppData/Local/Temp/_gbsbuild/obj/palette_2.rel
                                          [ palette_2 ]
C:/Users/pasta/AppData/Local/Temp/_gbsbuild/obj/palette_3.rel
                                          [ palette_3 ]
C:/Users/pasta/AppData/Local/Temp/_gbsbuild/obj/scene_0_actors.rel
                                          [ scene_0_actors ]
C:/Users/pasta/AppData/Local/Temp/_gbsbuild/obj/scene_0_collisions.rel
                                          [ scene_0_collisions ]
C:/Users/pasta/AppData/Local/Temp/_gbsbuild/obj/scene_0_init.rel
                                          [ scene_0_init ]
C:/Users/pasta/AppData/Local/Temp/_gbsbuild/obj/scene_0_sprites.rel
                                          [ scene_0_sprites ]
C:/Users/pasta/AppData/Local/Temp/_gbsbuild/obj/scene_0_triggers.rel
                                          [ scene_0_triggers ]
C:/Users/pasta/AppData/Local/Temp/_gbsbuild/obj/scene_0.rel
                                          [ scene_0 ]
C:/Users/pasta/AppData/Local/Temp/_gbsbuild/obj/scene_1_collisions.rel
                                          [ scene_1_collisions ]
C:/Users/pasta/AppData/Local/Temp/_gbsbuild/obj/scene_1_init.rel
                                          [ scene_1_init ]
C:/Users/pasta/AppData/Local/Temp/_gbsbuild/obj/scene_1.rel
                                          [ scene_1 ]
C:/Users/pasta/AppData/Local/Temp/_gbsbuild/obj/scene_10_collisions.rel
                                          [ scene_10_collisions ]
C:/Users/pasta/AppData/Local/Temp/_gbsbuild/obj/scene_10_init.rel
                                          [ scene_10_init ]
C:/Users/pasta/AppData/Local/Temp/_gbsbuild/obj/scene_10_triggers.rel
                                          [ scene_10_triggers ]
C:/Users/pasta/AppData/Local/Temp/_gbsbuild/obj/scene_10.rel
                                          [ scene_10 ]
C:/Users/pasta/AppData/Local/Temp/_gbsbuild/obj/scene_12_actors.rel
                                          [ scene_12_actors ]
C:/Users/pasta/AppData/Local/Temp/_gbsbuild/obj/scene_12_collisions.rel
                                          [ scene_12_collisions ]
C:/Users/pasta/AppData/Local/Temp/_gbsbuild/obj/scene_12_init.rel
                                          [ scene_12_init ]
C:/Users/pasta/AppData/Local/Temp/_gbsbuild/obj/scene_12_sprites.rel
                                          [ scene_12_sprites ]
C:/Users/pasta/AppData/Local/Temp/_gbsbuild/obj/scene_12_triggers.rel
                                          [ scene_12_triggers ]
C:/Users/pasta/AppData/Local/Temp/_gbsbuild/obj/scene_12.rel
                                          [ scene_12 ]
C:/Users/pasta/AppData/Local/Temp/_gbsbuild/obj/scene_13_collisions.rel
                                          [ scene_13_collisions ]
C:/Users/pasta/AppData/Local/Temp/_gbsbuild/obj/scene_13_init.rel
                                          [ scene_13_init ]
C:/Users/pasta/AppData/Local/Temp/_gbsbuild/obj/scene_13_triggers.rel
                                          [ scene_13_triggers ]
C:/Users/pasta/AppData/Local/Temp/_gbsbuild/obj/scene_13.rel
                                          [ scene_13 ]
C:/Users/pasta/AppData/Local/Temp/_gbsbuild/obj/scene_14_collisions.rel
                                          [ scene_14_collisions ]
C:/Users/pasta/AppData/Local/Temp/_gbsbuild/obj/scene_14_init.rel
                                          [ scene_14_init ]
C:/Users/pasta/AppData/Local/Temp/_gbsbuild/obj/scene_14_triggers.rel
                                          [ scene_14_triggers ]
C:/Users/pasta/AppData/Local/Temp/_gbsbuild/obj/scene_14.rel
                                          [ scene_14 ]
C:/Users/pasta/AppData/Local/Temp/_gbsbuild/obj/scene_15_collisions.rel
                                          [ scene_15_collisions ]
C:/Users/pasta/AppData/Local/Temp/_gbsbuild/obj/scene_15_init.rel
                                          [ scene_15_init ]
C:/Users/pasta/AppData/Local/Temp/_gbsbuild/obj/scene_15_triggers.rel
                                          [ scene_15_triggers ]
C:/Users/pasta/AppData/Local/Temp/_gbsbuild/obj/scene_15.rel
                                          [ scene_15 ]
C:/Users/pasta/AppData/Local/Temp/_gbsbuild/obj/scene_16_collisions.rel
                                          [ scene_16_collisions ]
C:/Users/pasta/AppData/Local/Temp/_gbsbuild/obj/scene_16_init.rel
                                          [ scene_16_init ]
C:/Users/pasta/AppData/Local/Temp/_gbsbuild/obj/scene_16_triggers.rel
                                          [ scene_16_triggers ]
C:/Users/pasta/AppData/Local/Temp/_gbsbuild/obj/scene_16.rel
                                          [ scene_16 ]
C:/Users/pasta/AppData/Local/Temp/_gbsbuild/obj/scene_17_collisions.rel
                                          [ scene_17_collisions ]
C:/Users/pasta/AppData/Local/Temp/_gbsbuild/obj/scene_17_init.rel
                                          [ scene_17_init ]
C:/Users/pasta/AppData/Local/Temp/_gbsbuild/obj/scene_17_triggers.rel
                                          [ scene_17_triggers ]
C:/Users/pasta/AppData/Local/Temp/_gbsbuild/obj/scene_17.rel
                                          [ scene_17 ]
C:/Users/pasta/AppData/Local/Temp/_gbsbuild/obj/scene_18_collisions.rel
                                          [ scene_18_collisions ]
C:/Users/pasta/AppData/Local/Temp/_gbsbuild/obj/scene_18_init.rel
                                          [ scene_18_init ]
C:/Users/pasta/AppData/Local/Temp/_gbsbuild/obj/scene_18_triggers.rel
                                          [ scene_18_triggers ]
C:/Users/pasta/AppData/Local/Temp/_gbsbuild/obj/scene_18.rel
                                          [ scene_18 ]
C:/Users/pasta/AppData/Local/Temp/_gbsbuild/obj/scene_19_actors.rel
                                          [ scene_19_actors ]
C:/Users/pasta/AppData/Local/Temp/_gbsbuild/obj/scene_19_collisions.rel
                                          [ scene_19_collisions ]
C:/Users/pasta/AppData/Local/Temp/_gbsbuild/obj/scene_19_init.rel
                                          [ scene_19_init ]
C:/Users/pasta/AppData/Local/Temp/_gbsbuild/obj/scene_19_sprites.rel
                                          [ scene_19_sprites ]
C:/Users/pasta/AppData/Local/Temp/_gbsbuild/obj/scene_19_triggers.rel
                                          [ scene_19_triggers ]
C:/Users/pasta/AppData/Local/Temp/_gbsbuild/obj/scene_19.rel
                                          [ scene_19 ]
C:/Users/pasta/AppData/Local/Temp/_gbsbuild/obj/scene_2_collisions.rel
                                          [ scene_2_collisions ]
C:/Users/pasta/AppData/Local/Temp/_gbsbuild/obj/scene_2_init.rel
                                          [ scene_2_init ]
C:/Users/pasta/AppData/Local/Temp/_gbsbuild/obj/scene_2_triggers.rel
                                          [ scene_2_triggers ]
C:/Users/pasta/AppData/Local/Temp/_gbsbuild/obj/scene_2.rel
                                          [ scene_2 ]
C:/Users/pasta/AppData/Local/Temp/_gbsbuild/obj/scene_20_actors.rel
                                          [ scene_20_actors ]
C:/Users/pasta/AppData/Local/Temp/_gbsbuild/obj/scene_20_collisions.rel
                                          [ scene_20_collisions ]
C:/Users/pasta/AppData/Local/Temp/_gbsbuild/obj/scene_20_init.rel
                                          [ scene_20_init ]
C:/Users/pasta/AppData/Local/Temp/_gbsbuild/obj/scene_20_sprites.rel
                                          [ scene_20_sprites ]
C:/Users/pasta/AppData/Local/Temp/_gbsbuild/obj/scene_20_triggers.rel
                                          [ scene_20_triggers ]
C:/Users/pasta/AppData/Local/Temp/_gbsbuild/obj/scene_20.rel
                                          [ scene_20 ]
C:/Users/pasta/AppData/Local/Temp/_gbsbuild/obj/scene_21_actors.rel
                                          [ scene_21_actors ]
C:/Users/pasta/AppData/Local/Temp/_gbsbuild/obj/scene_21_collisions.rel
                                          [ scene_21_collisions ]
C:/Users/pasta/AppData/Local/Temp/_gbsbuild/obj/scene_21_init.rel
                                          [ scene_21_init ]
C:/Users/pasta/AppData/Local/Temp/_gbsbuild/obj/scene_21_sprites.rel
                                          [ scene_21_sprites ]
C:/Users/pasta/AppData/Local/Temp/_gbsbuild/obj/scene_21_triggers.rel
                                          [ scene_21_triggers ]
C:/Users/pasta/AppData/Local/Temp/_gbsbuild/obj/scene_21.rel
                                          [ scene_21 ]
C:/Users/pasta/AppData/Local/Temp/_gbsbuild/obj/scene_22_actors.rel
                                          [ scene_22_actors ]
C:/Users/pasta/AppData/Local/Temp/_gbsbuild/obj/scene_22_collisions.rel
                                          [ scene_22_collisions ]
C:/Users/pasta/AppData/Local/Temp/_gbsbuild/obj/scene_22_init.rel
                                          [ scene_22_init ]
C:/Users/pasta/AppData/Local/Temp/_gbsbuild/obj/scene_22_sprites.rel
                                          [ scene_22_sprites ]
C:/Users/pasta/AppData/Local/Temp/_gbsbuild/obj/scene_22_triggers.rel
                                          [ scene_22_triggers ]
C:/Users/pasta/AppData/Local/Temp/_gbsbuild/obj/scene_22.rel
                                          [ scene_22 ]
C:/Users/pasta/AppData/Local/Temp/_gbsbuild/obj/scene_23_actors.rel
                                          [ scene_23_actors ]
C:/Users/pasta/AppData/Local/Temp/_gbsbuild/obj/scene_23_collisions.rel
                                          [ scene_23_collisions ]
C:/Users/pasta/AppData/Local/Temp/_gbsbuild/obj/scene_23_init.rel
                                          [ scene_23_init ]
C:/Users/pasta/AppData/Local/Temp/_gbsbuild/obj/scene_23_sprites.rel
                                          [ scene_23_sprites ]
C:/Users/pasta/AppData/Local/Temp/_gbsbuild/obj/scene_23_triggers.rel
                                          [ scene_23_triggers ]
C:/Users/pasta/AppData/Local/Temp/_gbsbuild/obj/scene_23.rel
                                          [ scene_23 ]
C:/Users/pasta/AppData/Local/Temp/_gbsbuild/obj/scene_24_actors.rel
                                          [ scene_24_actors ]
C:/Users/pasta/AppData/Local/Temp/_gbsbuild/obj/scene_24_collisions.rel
                                          [ scene_24_collisions ]
C:/Users/pasta/AppData/Local/Temp/_gbsbuild/obj/scene_24_init.rel
                                          [ scene_24_init ]
C:/Users/pasta/AppData/Local/Temp/_gbsbuild/obj/scene_24_sprites.rel
                                          [ scene_24_sprites ]
C:/Users/pasta/AppData/Local/Temp/_gbsbuild/obj/scene_24_triggers.rel
                                          [ scene_24_triggers ]
C:/Users/pasta/AppData/Local/Temp/_gbsbuild/obj/scene_24.rel
                                          [ scene_24 ]
C:/Users/pasta/AppData/Local/Temp/_gbsbuild/obj/scene_25_actors.rel
                                          [ scene_25_actors ]
C:/Users/pasta/AppData/Local/Temp/_gbsbuild/obj/scene_25_collisions.rel
                                          [ scene_25_collisions ]
C:/Users/pasta/AppData/Local/Temp/_gbsbuild/obj/scene_25_init.rel
                                          [ scene_25_init ]
C:/Users/pasta/AppData/Local/Temp/_gbsbuild/obj/scene_25_sprites.rel
                                          [ scene_25_sprites ]
C:/Users/pasta/AppData/Local/Temp/_gbsbuild/obj/scene_25_triggers.rel
                                          [ scene_25_triggers ]
C:/Users/pasta/AppData/Local/Temp/_gbsbuild/obj/scene_25.rel
                                          [ scene_25 ]
C:/Users/pasta/AppData/Local/Temp/_gbsbuild/obj/scene_26_actors.rel
                                          [ scene_26_actors ]
C:/Users/pasta/AppData/Local/Temp/_gbsbuild/obj/scene_26_collisions.rel
                                          [ scene_26_collisions ]
C:/Users/pasta/AppData/Local/Temp/_gbsbuild/obj/scene_26_init.rel
                                          [ scene_26_init ]
C:/Users/pasta/AppData/Local/Temp/_gbsbuild/obj/scene_26_sprites.rel
                                          [ scene_26_sprites ]
C:/Users/pasta/AppData/Local/Temp/_gbsbuild/obj/scene_26_triggers.rel
                                          [ scene_26_triggers ]
C:/Users/pasta/AppData/Local/Temp/_gbsbuild/obj/scene_26.rel
                                          [ scene_26 ]
C:/Users/pasta/AppData/Local/Temp/_gbsbuild/obj/scene_27_actors.rel
                                          [ scene_27_actors ]
C:/Users/pasta/AppData/Local/Temp/_gbsbuild/obj/scene_27_collisions.rel
                                          [ scene_27_collisions ]
C:/Users/pasta/AppData/Local/Temp/_gbsbuild/obj/scene_27_init.rel
                                          [ scene_27_init ]
C:/Users/pasta/AppData/Local/Temp/_gbsbuild/obj/scene_27_sprites.rel
                                          [ scene_27_sprites ]
C:/Users/pasta/AppData/Local/Temp/_gbsbuild/obj/scene_27_triggers.rel
                                          [ scene_27_triggers ]
C:/Users/pasta/AppData/Local/Temp/_gbsbuild/obj/scene_27.rel
                                          [ scene_27 ]
C:/Users/pasta/AppData/Local/Temp/_gbsbuild/obj/scene_28_collisions.rel
                                          [ scene_28_collisions ]
C:/Users/pasta/AppData/Local/Temp/_gbsbuild/obj/scene_28_init.rel
                                          [ scene_28_init ]
C:/Users/pasta/AppData/Local/Temp/_gbsbuild/obj/scene_28.rel
                                          [ scene_28 ]
C:/Users/pasta/AppData/Local/Temp/_gbsbuild/obj/scene_29_actors.rel
                                          [ scene_29_actors ]
C:/Users/pasta/AppData/Local/Temp/_gbsbuild/obj/scene_29_collisions.rel
                                          [ scene_29_collisions ]
C:/Users/pasta/AppData/Local/Temp/_gbsbuild/obj/scene_29_init.rel
                                          [ scene_29_init ]
C:/Users/pasta/AppData/Local/Temp/_gbsbuild/obj/scene_29_sprites.rel
                                          [ scene_29_sprites ]
C:/Users/pasta/AppData/Local/Temp/_gbsbuild/obj/scene_29_triggers.rel
                                          [ scene_29_triggers ]
C:/Users/pasta/AppData/Local/Temp/_gbsbuild/obj/scene_29.rel
                                          [ scene_29 ]
C:/Users/pasta/AppData/Local/Temp/_gbsbuild/obj/scene_3_collisions.rel
                                          [ scene_3_collisions ]
C:/Users/pasta/AppData/Local/Temp/_gbsbuild/obj/scene_3_init.rel
                                          [ scene_3_init ]
C:/Users/pasta/AppData/Local/Temp/_gbsbuild/obj/scene_3.rel
                                          [ scene_3 ]
C:/Users/pasta/AppData/Local/Temp/_gbsbuild/obj/scene_30_collisions.rel
                                          [ scene_30_collisions ]
C:/Users/pasta/AppData/Local/Temp/_gbsbuild/obj/scene_30_init.rel
                                          [ scene_30_init ]
C:/Users/pasta/AppData/Local/Temp/_gbsbuild/obj/scene_30.rel
                                          [ scene_30 ]
C:/Users/pasta/AppData/Local/Temp/_gbsbuild/obj/scene_31_collisions.rel
                                          [ scene_31_collisions ]
C:/Users/pasta/AppData/Local/Temp/_gbsbuild/obj/scene_31_init.rel
                                          [ scene_31_init ]
C:/Users/pasta/AppData/Local/Temp/_gbsbuild/obj/scene_31.rel
                                          [ scene_31 ]
C:/Users/pasta/AppData/Local/Temp/_gbsbuild/obj/scene_32_collisions.rel
                                          [ scene_32_collisions ]
C:/Users/pasta/AppData/Local/Temp/_gbsbuild/obj/scene_32_init.rel
                                          [ scene_32_init ]
C:/Users/pasta/AppData/Local/Temp/_gbsbuild/obj/scene_32.rel
                                          [ scene_32 ]
C:/Users/pasta/AppData/Local/Temp/_gbsbuild/obj/scene_4_collisions.rel
                                          [ scene_4_collisions ]
C:/Users/pasta/AppData/Local/Temp/_gbsbuild/obj/scene_4_init.rel
                                          [ scene_4_init ]
C:/Users/pasta/AppData/Local/Temp/_gbsbuild/obj/scene_4_triggers.rel
                                          [ scene_4_triggers ]
C:/Users/pasta/AppData/Local/Temp/_gbsbuild/obj/scene_4.rel
                                          [ scene_4 ]
C:/Users/pasta/AppData/Local/Temp/_gbsbuild/obj/scene_5_collisions.rel
                                          [ scene_5_collisions ]
C:/Users/pasta/AppData/Local/Temp/_gbsbuild/obj/scene_5_init.rel
                                          [ scene_5_init ]
C:/Users/pasta/AppData/Local/Temp/_gbsbuild/obj/scene_5_triggers.rel
                                          [ scene_5_triggers ]
C:/Users/pasta/AppData/Local/Temp/_gbsbuild/obj/scene_5.rel
                                          [ scene_5 ]
C:/Users/pasta/AppData/Local/Temp/_gbsbuild/obj/scene_6_collisions.rel
                                          [ scene_6_collisions ]
C:/Users/pasta/AppData/Local/Temp/_gbsbuild/obj/scene_6_init.rel
                                          [ scene_6_init ]
C:/Users/pasta/AppData/Local/Temp/_gbsbuild/obj/scene_6_triggers.rel
                                          [ scene_6_triggers ]
C:/Users/pasta/AppData/Local/Temp/_gbsbuild/obj/scene_6.rel
                                          [ scene_6 ]
C:/Users/pasta/AppData/Local/Temp/_gbsbuild/obj/scene_7_collisions.rel
                                          [ scene_7_collisions ]
C:/Users/pasta/AppData/Local/Temp/_gbsbuild/obj/scene_7_init.rel
                                          [ scene_7_init ]
C:/Users/pasta/AppData/Local/Temp/_gbsbuild/obj/scene_7.rel
                                          [ scene_7 ]
C:/Users/pasta/AppData/Local/Temp/_gbsbuild/obj/scene_8_collisions.rel
                                          [ scene_8_collisions ]
C:/Users/pasta/AppData/Local/Temp/_gbsbuild/obj/scene_8_init.rel
                                          [ scene_8_init ]
C:/Users/pasta/AppData/Local/Temp/_gbsbuild/obj/scene_8_triggers.rel
                                          [ scene_8_triggers ]
C:/Users/pasta/AppData/Local/Temp/_gbsbuild/obj/scene_8.rel
                                          [ scene_8 ]
C:/Users/pasta/AppData/Local/Temp/_gbsbuild/obj/scene_9_collisions.rel
                                          [ scene_9_collisions ]
C:/Users/pasta/AppData/Local/Temp/_gbsbuild/obj/scene_9_init.rel
                                          [ scene_9_init ]
C:/Users/pasta/AppData/Local/Temp/_gbsbuild/obj/scene_9_triggers.rel
                                          [ scene_9_triggers ]
C:/Users/pasta/AppData/Local/Temp/_gbsbuild/obj/scene_9.rel
                                          [ scene_9 ]
C:/Users/pasta/AppData/Local/Temp/_gbsbuild/obj/script_1.rel
                                          [ script_1 ]
C:/Users/pasta/AppData/Local/Temp/_gbsbuild/obj/script_2.rel
                                          [ script_2 ]
C:/Users/pasta/AppData/Local/Temp/_gbsbuild/obj/script_4.rel
                                          [ script_4 ]
C:/Users/pasta/AppData/Local/Temp/_gbsbuild/obj/script_5.rel
                                          [ script_5 ]
C:/Users/pasta/AppData/Local/Temp/_gbsbuild/obj/script_6.rel
                                          [ script_6 ]
C:/Users/pasta/AppData/Local/Temp/_gbsbuild/obj/script_7.rel
                                          [ script_7 ]
C:/Users/pasta/AppData/Local/Temp/_gbsbuild/obj/script_8.rel
                                          [ script_8 ]
C:/Users/pasta/AppData/Local/Temp/_gbsbuild/obj/script_engine_init.rel
                                          [  ]
C:/Users/pasta/AppData/Local/Temp/_gbsbuild/obj/script_input_0.rel
                                          [ script_input_0 ]
C:/Users/pasta/AppData/Local/Temp/_gbsbuild/obj/script_input_1.rel
                                          [ script_input_1 ]
C:/Users/pasta/AppData/Local/Temp/_gbsbuild/obj/script_input_2.rel
                                          [ script_input_2 ]
C:/Users/pasta/AppData/Local/Temp/_gbsbuild/obj/sound_legacy_0.rel
                                          [ sound_legacy_0 ]
C:/Users/pasta/AppData/Local/Temp/_gbsbuild/obj/sound_legacy_1.rel
                                          [ sound_legacy_1 ]
C:/Users/pasta/AppData/Local/Temp/_gbsbuild/obj/sprite_actor_animated_tileset.rel
                                          [ sprite_actor_animated_tileset ]
C:/Users/pasta/AppData/Local/Temp/_gbsbuild/obj/sprite_actor_animated.rel
                                          [ sprite_actor_animated ]
C:/Users/pasta/AppData/Local/Temp/_gbsbuild/obj/sprite_animated_animals_cro_0_tileset.rel
                                          [ sprite_animated_animals_cro_0_ti ]
C:/Users/pasta/AppData/Local/Temp/_gbsbuild/obj/sprite_animated_animals_cro_0.rel
                                          [ sprite_animated_animals_cro_0 ]
C:/Users/pasta/AppData/Local/Temp/_gbsbuild/obj/sprite_animated_animals_cro_tileset.rel
                                          [ sprite_animated_animals_cro_tile ]
C:/Users/pasta/AppData/Local/Temp/_gbsbuild/obj/sprite_animated_animals_cro.rel
                                          [ sprite_animated_animals_cro ]
C:/Users/pasta/AppData/Local/Temp/_gbsbuild/obj/sprite_animated_animals_sea_tileset.rel
                                          [ sprite_animated_animals_sea_tile ]
C:/Users/pasta/AppData/Local/Temp/_gbsbuild/obj/sprite_animated_animals_sea.rel
                                          [ sprite_animated_animals_sea ]
C:/Users/pasta/AppData/Local/Temp/_gbsbuild/obj/sprite_animated_crosshairs__10_tileset.rel
                                          [ sprite_animated_crosshairs__10_t ]
C:/Users/pasta/AppData/Local/Temp/_gbsbuild/obj/sprite_animated_crosshairs__10.rel
                                          [ sprite_animated_crosshairs__10 ]
C:/Users/pasta/AppData/Local/Temp/_gbsbuild/obj/sprite_animated_crosshairs__11_tileset.rel
                                          [ sprite_animated_crosshairs__11_t ]
C:/Users/pasta/AppData/Local/Temp/_gbsbuild/obj/sprite_animated_crosshairs__11.rel
                                          [ sprite_animated_crosshairs__11 ]
C:/Users/pasta/AppData/Local/Temp/_gbsbuild/obj/sprite_animated_people_spin_tileset.rel
                                          [ sprite_animated_people_spin_tile ]
C:/Users/pasta/AppData/Local/Temp/_gbsbuild/obj/sprite_animated_people_spin.rel
                                          [ sprite_animated_people_spin ]
C:/Users/pasta/AppData/Local/Temp/_gbsbuild/obj/sprite_cursors_default_curs.rel
                                          [ sprite_cursors_default_curs ]
C:/Users/pasta/AppData/Local/Temp/_gbsbuild/obj/sprite_static_cats_cat_whit_tileset.rel
                                          [ sprite_static_cats_cat_whit_tile ]
C:/Users/pasta/AppData/Local/Temp/_gbsbuild/obj/sprite_static_cats_cat_whit.rel
                                          [ sprite_static_cats_cat_whit ]
C:/Users/pasta/AppData/Local/Temp/_gbsbuild/obj/spritesheet_none.rel
                                          [ spritesheet_none ]
C:/Users/pasta/AppData/Local/Temp/_gbsbuild/obj/trigger_0_interact.rel
                                          [ trigger_0_interact ]
C:/Users/pasta/AppData/Local/Temp/_gbsbuild/obj/trigger_1_interact.rel
                                          [ trigger_1_interact ]
C:/Users/pasta/AppData/Local/Temp/_gbsbuild/obj/trigger_10_interact.rel
                                          [ trigger_10_interact ]
C:/Users/pasta/AppData/Local/Temp/_gbsbuild/obj/trigger_100_interact.rel
                                          [ trigger_100_interact ]
C:/Users/pasta/AppData/Local/Temp/_gbsbuild/obj/trigger_101_interact.rel
                                          [ trigger_101_interact ]
C:/Users/pasta/AppData/Local/Temp/_gbsbuild/obj/trigger_102_interact.rel
                                          [ trigger_102_interact ]
C:/Users/pasta/AppData/Local/Temp/_gbsbuild/obj/trigger_103_interact.rel
                                          [ trigger_103_interact ]
C:/Users/pasta/AppData/Local/Temp/_gbsbuild/obj/trigger_104_interact.rel
                                          [ trigger_104_interact ]
C:/Users/pasta/AppData/Local/Temp/_gbsbuild/obj/trigger_105_interact.rel
                                          [ trigger_105_interact ]
C:/Users/pasta/AppData/Local/Temp/_gbsbuild/obj/trigger_106_interact.rel
                                          [ trigger_106_interact ]
C:/Users/pasta/AppData/Local/Temp/_gbsbuild/obj/trigger_107_interact.rel
                                          [ trigger_107_interact ]
C:/Users/pasta/AppData/Local/Temp/_gbsbuild/obj/trigger_108_interact.rel
                                          [ trigger_108_interact ]
C:/Users/pasta/AppData/Local/Temp/_gbsbuild/obj/trigger_109_interact.rel
                                          [ trigger_109_interact ]
C:/Users/pasta/AppData/Local/Temp/_gbsbuild/obj/trigger_11_interact.rel
                                          [ trigger_11_interact ]
C:/Users/pasta/AppData/Local/Temp/_gbsbuild/obj/trigger_110_interact.rel
                                          [ trigger_110_interact ]
C:/Users/pasta/AppData/Local/Temp/_gbsbuild/obj/trigger_111_interact.rel
                                          [ trigger_111_interact ]
C:/Users/pasta/AppData/Local/Temp/_gbsbuild/obj/trigger_112_interact.rel
                                          [ trigger_112_interact ]
C:/Users/pasta/AppData/Local/Temp/_gbsbuild/obj/trigger_113_interact.rel
                                          [ trigger_113_interact ]
C:/Users/pasta/AppData/Local/Temp/_gbsbuild/obj/trigger_114_interact.rel
                                          [ trigger_114_interact ]
C:/Users/pasta/AppData/Local/Temp/_gbsbuild/obj/trigger_115_interact.rel
                                          [ trigger_115_interact ]
C:/Users/pasta/AppData/Local/Temp/_gbsbuild/obj/trigger_116_interact.rel
                                          [ trigger_116_interact ]
C:/Users/pasta/AppData/Local/Temp/_gbsbuild/obj/trigger_117_interact.rel
                                          [ trigger_117_interact ]
C:/Users/pasta/AppData/Local/Temp/_gbsbuild/obj/trigger_118_interact.rel
                                          [ trigger_118_interact ]
C:/Users/pasta/AppData/Local/Temp/_gbsbuild/obj/trigger_12_interact.rel
                                          [ trigger_12_interact ]
C:/Users/pasta/AppData/Local/Temp/_gbsbuild/obj/trigger_120_interact.rel
                                          [ trigger_120_interact ]
C:/Users/pasta/AppData/Local/Temp/_gbsbuild/obj/trigger_121_interact.rel
                                          [ trigger_121_interact ]
C:/Users/pasta/AppData/Local/Temp/_gbsbuild/obj/trigger_122_interact.rel
                                          [ trigger_122_interact ]
C:/Users/pasta/AppData/Local/Temp/_gbsbuild/obj/trigger_123_interact.rel
                                          [ trigger_123_interact ]
C:/Users/pasta/AppData/Local/Temp/_gbsbuild/obj/trigger_124_interact.rel
                                          [ trigger_124_interact ]
C:/Users/pasta/AppData/Local/Temp/_gbsbuild/obj/trigger_13_interact.rel
                                          [ trigger_13_interact ]
C:/Users/pasta/AppData/Local/Temp/_gbsbuild/obj/trigger_14_interact.rel
                                          [ trigger_14_interact ]
C:/Users/pasta/AppData/Local/Temp/_gbsbuild/obj/trigger_15_interact.rel
                                          [ trigger_15_interact ]
C:/Users/pasta/AppData/Local/Temp/_gbsbuild/obj/trigger_16_interact.rel
                                          [ trigger_16_interact ]
C:/Users/pasta/AppData/Local/Temp/_gbsbuild/obj/trigger_17_interact.rel
                                          [ trigger_17_interact ]
C:/Users/pasta/AppData/Local/Temp/_gbsbuild/obj/trigger_18_interact.rel
                                          [ trigger_18_interact ]
C:/Users/pasta/AppData/Local/Temp/_gbsbuild/obj/trigger_19_interact.rel
                                          [ trigger_19_interact ]
C:/Users/pasta/AppData/Local/Temp/_gbsbuild/obj/trigger_2_interact.rel
                                          [ trigger_2_interact ]
C:/Users/pasta/AppData/Local/Temp/_gbsbuild/obj/trigger_20_interact.rel
                                          [ trigger_20_interact ]
C:/Users/pasta/AppData/Local/Temp/_gbsbuild/obj/trigger_21_interact.rel
                                          [ trigger_21_interact ]
C:/Users/pasta/AppData/Local/Temp/_gbsbuild/obj/trigger_22_interact.rel
                                          [ trigger_22_interact ]
C:/Users/pasta/AppData/Local/Temp/_gbsbuild/obj/trigger_23_interact.rel
                                          [ trigger_23_interact ]
C:/Users/pasta/AppData/Local/Temp/_gbsbuild/obj/trigger_24_interact.rel
                                          [ trigger_24_interact ]
C:/Users/pasta/AppData/Local/Temp/_gbsbuild/obj/trigger_25_interact.rel
                                          [ trigger_25_interact ]
C:/Users/pasta/AppData/Local/Temp/_gbsbuild/obj/trigger_26_interact.rel
                                          [ trigger_26_interact ]
C:/Users/pasta/AppData/Local/Temp/_gbsbuild/obj/trigger_27_interact.rel
                                          [ trigger_27_interact ]
C:/Users/pasta/AppData/Local/Temp/_gbsbuild/obj/trigger_28_interact.rel
                                          [ trigger_28_interact ]
C:/Users/pasta/AppData/Local/Temp/_gbsbuild/obj/trigger_29_interact.rel
                                          [ trigger_29_interact ]
C:/Users/pasta/AppData/Local/Temp/_gbsbuild/obj/trigger_3_interact.rel
                                          [ trigger_3_interact ]
C:/Users/pasta/AppData/Local/Temp/_gbsbuild/obj/trigger_30_interact.rel
                                          [ trigger_30_interact ]
C:/Users/pasta/AppData/Local/Temp/_gbsbuild/obj/trigger_31_interact.rel
                                          [ trigger_31_interact ]
C:/Users/pasta/AppData/Local/Temp/_gbsbuild/obj/trigger_32_interact.rel
                                          [ trigger_32_interact ]
C:/Users/pasta/AppData/Local/Temp/_gbsbuild/obj/trigger_33_interact.rel
                                          [ trigger_33_interact ]
C:/Users/pasta/AppData/Local/Temp/_gbsbuild/obj/trigger_34_interact.rel
                                          [ trigger_34_interact ]
C:/Users/pasta/AppData/Local/Temp/_gbsbuild/obj/trigger_35_interact.rel
                                          [ trigger_35_interact ]
C:/Users/pasta/AppData/Local/Temp/_gbsbuild/obj/trigger_36_interact.rel
                                          [ trigger_36_interact ]
C:/Users/pasta/AppData/Local/Temp/_gbsbuild/obj/trigger_37_interact.rel
                                          [ trigger_37_interact ]
C:/Users/pasta/AppData/Local/Temp/_gbsbuild/obj/trigger_38_interact.rel
                                          [ trigger_38_interact ]
C:/Users/pasta/AppData/Local/Temp/_gbsbuild/obj/trigger_39_interact.rel
                                          [ trigger_39_interact ]
C:/Users/pasta/AppData/Local/Temp/_gbsbuild/obj/trigger_4_interact.rel
                                          [ trigger_4_interact ]
C:/Users/pasta/AppData/Local/Temp/_gbsbuild/obj/trigger_40_interact.rel
                                          [ trigger_40_interact ]
C:/Users/pasta/AppData/Local/Temp/_gbsbuild/obj/trigger_41_interact.rel
                                          [ trigger_41_interact ]
C:/Users/pasta/AppData/Local/Temp/_gbsbuild/obj/trigger_42_interact.rel
                                          [ trigger_42_interact ]
C:/Users/pasta/AppData/Local/Temp/_gbsbuild/obj/trigger_43_interact.rel
                                          [ trigger_43_interact ]
C:/Users/pasta/AppData/Local/Temp/_gbsbuild/obj/trigger_44_interact.rel
                                          [ trigger_44_interact ]
C:/Users/pasta/AppData/Local/Temp/_gbsbuild/obj/trigger_45_interact.rel
                                          [ trigger_45_interact ]
C:/Users/pasta/AppData/Local/Temp/_gbsbuild/obj/trigger_46_interact.rel
                                          [ trigger_46_interact ]
C:/Users/pasta/AppData/Local/Temp/_gbsbuild/obj/trigger_47_interact.rel
                                          [ trigger_47_interact ]
C:/Users/pasta/AppData/Local/Temp/_gbsbuild/obj/trigger_48_interact.rel
                                          [ trigger_48_interact ]
C:/Users/pasta/AppData/Local/Temp/_gbsbuild/obj/trigger_49_interact.rel
                                          [ trigger_49_interact ]
C:/Users/pasta/AppData/Local/Temp/_gbsbuild/obj/trigger_5_interact.rel
                                          [ trigger_5_interact ]
C:/Users/pasta/AppData/Local/Temp/_gbsbuild/obj/trigger_50_interact.rel
                                          [ trigger_50_interact ]
C:/Users/pasta/AppData/Local/Temp/_gbsbuild/obj/trigger_51_interact.rel
                                          [ trigger_51_interact ]
C:/Users/pasta/AppData/Local/Temp/_gbsbuild/obj/trigger_52_interact.rel
                                          [ trigger_52_interact ]
C:/Users/pasta/AppData/Local/Temp/_gbsbuild/obj/trigger_53_interact.rel
                                          [ trigger_53_interact ]
C:/Users/pasta/AppData/Local/Temp/_gbsbuild/obj/trigger_54_interact.rel
                                          [ trigger_54_interact ]
C:/Users/pasta/AppData/Local/Temp/_gbsbuild/obj/trigger_55_interact.rel
                                          [ trigger_55_interact ]
C:/Users/pasta/AppData/Local/Temp/_gbsbuild/obj/trigger_56_interact.rel
                                          [ trigger_56_interact ]
C:/Users/pasta/AppData/Local/Temp/_gbsbuild/obj/trigger_57_interact.rel
                                          [ trigger_57_interact ]
C:/Users/pasta/AppData/Local/Temp/_gbsbuild/obj/trigger_58_interact.rel
                                          [ trigger_58_interact ]
C:/Users/pasta/AppData/Local/Temp/_gbsbuild/obj/trigger_59_interact.rel
                                          [ trigger_59_interact ]
C:/Users/pasta/AppData/Local/Temp/_gbsbuild/obj/trigger_6_interact.rel
                                          [ trigger_6_interact ]
C:/Users/pasta/AppData/Local/Temp/_gbsbuild/obj/trigger_60_interact.rel
                                          [ trigger_60_interact ]
C:/Users/pasta/AppData/Local/Temp/_gbsbuild/obj/trigger_61_interact.rel
                                          [ trigger_61_interact ]
C:/Users/pasta/AppData/Local/Temp/_gbsbuild/obj/trigger_64_interact.rel
                                          [ trigger_64_interact ]
C:/Users/pasta/AppData/Local/Temp/_gbsbuild/obj/trigger_67_interact.rel
                                          [ trigger_67_interact ]
C:/Users/pasta/AppData/Local/Temp/_gbsbuild/obj/trigger_68_interact.rel
                                          [ trigger_68_interact ]
C:/Users/pasta/AppData/Local/Temp/_gbsbuild/obj/trigger_69_interact.rel
                                          [ trigger_69_interact ]
C:/Users/pasta/AppData/Local/Temp/_gbsbuild/obj/trigger_7_interact.rel
                                          [ trigger_7_interact ]
C:/Users/pasta/AppData/Local/Temp/_gbsbuild/obj/trigger_70_interact.rel
                                          [ trigger_70_interact ]
C:/Users/pasta/AppData/Local/Temp/_gbsbuild/obj/trigger_71_interact.rel
                                          [ trigger_71_interact ]
C:/Users/pasta/AppData/Local/Temp/_gbsbuild/obj/trigger_72_interact.rel
                                          [ trigger_72_interact ]
C:/Users/pasta/AppData/Local/Temp/_gbsbuild/obj/trigger_73_interact.rel
                                          [ trigger_73_interact ]
C:/Users/pasta/AppData/Local/Temp/_gbsbuild/obj/trigger_74_interact.rel
                                          [ trigger_74_interact ]
C:/Users/pasta/AppData/Local/Temp/_gbsbuild/obj/trigger_75_interact.rel
                                          [ trigger_75_interact ]
C:/Users/pasta/AppData/Local/Temp/_gbsbuild/obj/trigger_76_interact.rel
                                          [ trigger_76_interact ]
C:/Users/pasta/AppData/Local/Temp/_gbsbuild/obj/trigger_77_interact.rel
                                          [ trigger_77_interact ]
C:/Users/pasta/AppData/Local/Temp/_gbsbuild/obj/trigger_78_interact.rel
                                          [ trigger_78_interact ]
C:/Users/pasta/AppData/Local/Temp/_gbsbuild/obj/trigger_8_interact.rel
                                          [ trigger_8_interact ]
C:/Users/pasta/AppData/Local/Temp/_gbsbuild/obj/trigger_81_interact.rel
                                          [ trigger_81_interact ]
C:/Users/pasta/AppData/Local/Temp/_gbsbuild/obj/trigger_82_interact.rel
                                          [ trigger_82_interact ]
C:/Users/pasta/AppData/Local/Temp/_gbsbuild/obj/trigger_83_interact.rel
                                          [ trigger_83_interact ]
C:/Users/pasta/AppData/Local/Temp/_gbsbuild/obj/trigger_84_interact.rel
                                          [ trigger_84_interact ]
C:/Users/pasta/AppData/Local/Temp/_gbsbuild/obj/trigger_85_interact.rel
                                          [ trigger_85_interact ]
C:/Users/pasta/AppData/Local/Temp/_gbsbuild/obj/trigger_86_interact.rel
                                          [ trigger_86_interact ]
C:/Users/pasta/AppData/Local/Temp/_gbsbuild/obj/trigger_87_interact.rel
                                          [ trigger_87_interact ]
C:/Users/pasta/AppData/Local/Temp/_gbsbuild/obj/trigger_88_interact.rel
                                          [ trigger_88_interact ]
C:/Users/pasta/AppData/Local/Temp/_gbsbuild/obj/trigger_89_interact.rel
                                          [ trigger_89_interact ]
C:/Users/pasta/AppData/Local/Temp/_gbsbuild/obj/trigger_9_interact.rel
                                          [ trigger_9_interact ]
C:/Users/pasta/AppData/Local/Temp/_gbsbuild/obj/trigger_90_interact.rel
                                          [ trigger_90_interact ]
C:/Users/pasta/AppData/Local/Temp/_gbsbuild/obj/trigger_91_interact.rel
                                          [ trigger_91_interact ]
C:/Users/pasta/AppData/Local/Temp/_gbsbuild/obj/trigger_92_interact.rel
                                          [ trigger_92_interact ]
C:/Users/pasta/AppData/Local/Temp/_gbsbuild/obj/trigger_93_interact.rel
                                          [ trigger_93_interact ]
C:/Users/pasta/AppData/Local/Temp/_gbsbuild/obj/trigger_94_interact.rel
                                          [ trigger_94_interact ]
C:/Users/pasta/AppData/Local/Temp/_gbsbuild/obj/trigger_95_interact.rel
                                          [ trigger_95_interact ]
C:/Users/pasta/AppData/Local/Temp/_gbsbuild/obj/trigger_96_interact.rel
                                          [ trigger_96_interact ]
C:/Users/pasta/AppData/Local/Temp/_gbsbuild/obj/trigger_97_interact.rel
                                          [ trigger_97_interact ]
C:/Users/pasta/AppData/Local/Temp/_gbsbuild/obj/trigger_98_interact.rel
                                          [ trigger_98_interact ]
C:/Users/pasta/AppData/Local/Temp/_gbsbuild/obj/trigger_99_interact.rel
                                          [ trigger_99_interact ]
C:/Users/pasta/AppData/Local/Temp/_gbsbuild/obj/main.rel
                                          [ main ]
C:/Users/pasta/AppData/Local/Temp/_gbsbuild/obj/adventure.rel
                                          [ adventure ]
C:/Users/pasta/AppData/Local/Temp/_gbsbuild/obj/logo.rel
                                          [ logo ]
C:/Users/pasta/AppData/Local/Temp/_gbsbuild/obj/platform.rel
                                          [ platform ]
C:/Users/pasta/AppData/Local/Temp/_gbsbuild/obj/pointnclick.rel
                                          [ pointnclick ]
C:/Users/pasta/AppData/Local/Temp/_gbsbuild/obj/shmup.rel
                                          [ shmup ]
C:/Users/pasta/AppData/Local/Temp/_gbsbuild/obj/states_ptrs.rel
                                          [  ]
C:/Users/pasta/AppData/Local/Temp/_gbsbuild/obj/topdown.rel
                                          [ topdown ]


Libraries Linked                          [ object file ]

C:\Users\pasta\AppData\Local\Temp/_gbstools/gbdk/lib/gb/gb.lib
                                          [ fill_rect_wi.o ]
C:\Users\pasta\AppData\Local\Temp/_gbstools/gbdk/lib/sm83/sm83.lib
                                          [ rand.o ]
lib/hUGEDriver.lib                        [ hUGEDriver.o ]
C:\Users\pasta\AppData\Local\Temp/_gbstools/gbdk/lib/gb/gb.lib
                                          [ sfr.o ]
C:\Users\pasta\AppData\Local\Temp/_gbstools/gbdk/lib/gb/gb.lib
                                          [ get_data.o ]
C:\Users\pasta\AppData\Local\Temp/_gbstools/gbdk/lib/gb/gb.lib
                                          [ get_tile.o ]
C:\Users\pasta\AppData\Local\Temp/_gbstools/gbdk/lib/gb/gb.lib
                                          [ cgb_palettes.o ]
C:\Users\pasta\AppData\Local\Temp/_gbstools/gbdk/lib/gb/gb.lib
                                          [ metasprites_hide_spr.o ]
C:\Users\pasta\AppData\Local\Temp/_gbstools/gbdk/lib/sm83/sm83.lib
                                          [ mul.o ]
C:\Users\pasta\AppData\Local\Temp/_gbstools/gbdk/lib/gb/gb.lib
                                          [ set_tile.o ]
C:\Users\pasta\AppData\Local\Temp/_gbstools/gbdk/lib/sm83/sm83.lib
                                          [ abs.o ]
C:\Users\pasta\AppData\Local\Temp/_gbstools/gbdk/lib/gb/gb.lib
                                          [ set_wi_t.o ]
C:\Users\pasta\AppData\Local\Temp/_gbstools/gbdk/lib/gb/gb.lib
                                          [ set_data.o ]
C:\Users\pasta\AppData\Local\Temp/_gbstools/gbdk/lib/sm83/sm83.lib
                                          [ reverse.o ]
C:\Users\pasta\AppData\Local\Temp/_gbstools/gbdk/lib/gb/gb.lib
                                          [ far_ptr.o ]
C:\Users\pasta\AppData\Local\Temp/_gbstools/gbdk/lib/gb/gb.lib
                                          [ sgb.o ]
C:\Users\pasta\AppData\Local\Temp/_gbstools/gbdk/lib/gb/gb.lib
                                          [ lcd.o ]
C:\Users\pasta\AppData\Local\Temp/_gbstools/gbdk/lib/gb/gb.lib
                                          [ fill_rect.o ]
C:\Users\pasta\AppData\Local\Temp/_gbstools/gbdk/lib/gb/gb.lib
                                          [ cpy_data.o ]
C:\Users\pasta\AppData\Local\Temp/_gbstools/gbdk/lib/gb/gb.lib
                                          [ fill_rect_bk.o ]
C:\Users\pasta\AppData\Local\Temp/_gbstools/gbdk/lib/gb/gb.lib
                                          [ pad.o ]
C:\Users\pasta\AppData\Local\Temp/_gbstools/gbdk/lib/gb/gb.lib
                                          [ metasprites.o ]
C:\Users\pasta\AppData\Local\Temp/_gbstools/gbdk/lib/sm83/sm83.lib
                                          [ __sdcc_call_hl.o ]
C:\Users\pasta\AppData\Local\Temp/_gbstools/gbdk/lib/sm83/sm83.lib
                                          [ memcpy.o ]
C:\Users\pasta\AppData\Local\Temp/_gbstools/gbdk/lib/sm83/sm83.lib
                                          [ _memset.o ]
C:\Users\pasta\AppData\Local\Temp/_gbstools/gbdk/lib/gb/gb.lib
                                          [ set_xy_t.o ]
C:\Users\pasta\AppData\Local\Temp/_gbstools/gbdk/lib/gb/gb.lib
                                          [ ___sdcc_bcall_ehl.o ]
C:\Users\pasta\AppData\Local\Temp/_gbstools/gbdk/lib/gb/gb.lib
                                          [ cgb.o ]
C:\Users\pasta\AppData\Local\Temp/_gbstools/gbdk/lib/sm83/sm83.lib
                                          [ div.o ]
C:\Users\pasta\AppData\Local\Temp/_gbstools/gbdk/lib/gb/gb.lib
                                          [ set_bk_t.o ]

ASxxxx Linker V03.00/V05.40 + sdld,  page 98.

User Base Address Definitions

_DATA=0xC0A0
_CODE=0x0200
ASxxxx Linker V03.00/V05.40 + sdld,  page 99.

User Global Definitions

.STACK=0xDF00
_shadow_OAM=0xC000
.refresh_OAM=0xFF80
__start_save=12

